Archive member included because of file (symbol)

/opt/cross/lib/gcc/arm-elf/4.2.1/thumb/interwork/libgcc.a(_udivsi3.o)
                              ../Common/drivers/LPC/serial/serial.o (__udivsi3)
/opt/cross/lib/gcc/arm-elf/4.2.1/thumb/interwork/libgcc.a(_divsi3.o)
                              ../Common/Minimal/integer.o (__divsi3)
/opt/cross/lib/gcc/arm-elf/4.2.1/thumb/interwork/libgcc.a(_dvmd_tls.o)
                              /opt/cross/lib/gcc/arm-elf/4.2.1/thumb/interwork/libgcc.a(_udivsi3.o) (__div0)
/opt/cross/lib/gcc/arm-elf/4.2.1/../../../../arm-elf/lib/thumb/interwork/libg.a(lib_a-memcpy.o)
                              ../Source/queue.o (memcpy)
/opt/cross/lib/gcc/arm-elf/4.2.1/../../../../arm-elf/lib/thumb/interwork/libg.a(lib_a-memset.o)
                              ../Source/tasks.o (memset)
/opt/cross/lib/gcc/arm-elf/4.2.1/../../../../arm-elf/lib/thumb/interwork/libg.a(lib_a-sprintf.o)
                              ../Source/tasks.o (sprintf)
/opt/cross/lib/gcc/arm-elf/4.2.1/../../../../arm-elf/lib/thumb/interwork/libg.a(lib_a-strcat.o)
                              ../Source/tasks.o (strcat)
/opt/cross/lib/gcc/arm-elf/4.2.1/../../../../arm-elf/lib/thumb/interwork/libg.a(lib_a-strcpy.o)
                              /opt/cross/lib/gcc/arm-elf/4.2.1/../../../../arm-elf/lib/thumb/interwork/libg.a(lib_a-strcat.o) (strcpy)
/opt/cross/lib/gcc/arm-elf/4.2.1/../../../../arm-elf/lib/thumb/interwork/libg.a(lib_a-strlen.o)
                              ../Source/tasks.o (strlen)
/opt/cross/lib/gcc/arm-elf/4.2.1/../../../../arm-elf/lib/thumb/interwork/libg.a(lib_a-strncpy.o)
                              ../Source/tasks.o (strncpy)
/opt/cross/lib/gcc/arm-elf/4.2.1/../../../../arm-elf/lib/thumb/interwork/libg.a(lib_a-svfprintf.o)
                              /opt/cross/lib/gcc/arm-elf/4.2.1/../../../../arm-elf/lib/thumb/interwork/libg.a(lib_a-sprintf.o) (_svfprintf_r)
/opt/cross/lib/gcc/arm-elf/4.2.1/../../../../arm-elf/lib/thumb/interwork/libg.a(lib_a-dtoa.o)
                              /opt/cross/lib/gcc/arm-elf/4.2.1/../../../../arm-elf/lib/thumb/interwork/libg.a(lib_a-svfprintf.o) (_dtoa_r)
/opt/cross/lib/gcc/arm-elf/4.2.1/../../../../arm-elf/lib/thumb/interwork/libg.a(lib_a-freer.o)
                              /opt/cross/lib/gcc/arm-elf/4.2.1/../../../../arm-elf/lib/thumb/interwork/libg.a(lib_a-svfprintf.o) (_free_r)
/opt/cross/lib/gcc/arm-elf/4.2.1/../../../../arm-elf/lib/thumb/interwork/libg.a(lib_a-impure.o)
                              /opt/cross/lib/gcc/arm-elf/4.2.1/../../../../arm-elf/lib/thumb/interwork/libg.a(lib_a-sprintf.o) (_impure_ptr)
/opt/cross/lib/gcc/arm-elf/4.2.1/../../../../arm-elf/lib/thumb/interwork/libg.a(lib_a-locale.o)
                              /opt/cross/lib/gcc/arm-elf/4.2.1/../../../../arm-elf/lib/thumb/interwork/libg.a(lib_a-svfprintf.o) (_localeconv_r)
/opt/cross/lib/gcc/arm-elf/4.2.1/../../../../arm-elf/lib/thumb/interwork/libg.a(lib_a-mallocr.o)
                              /opt/cross/lib/gcc/arm-elf/4.2.1/../../../../arm-elf/lib/thumb/interwork/libg.a(lib_a-svfprintf.o) (_malloc_r)
/opt/cross/lib/gcc/arm-elf/4.2.1/../../../../arm-elf/lib/thumb/interwork/libg.a(lib_a-memchr.o)
                              /opt/cross/lib/gcc/arm-elf/4.2.1/../../../../arm-elf/lib/thumb/interwork/libg.a(lib_a-svfprintf.o) (memchr)
/opt/cross/lib/gcc/arm-elf/4.2.1/../../../../arm-elf/lib/thumb/interwork/libg.a(lib_a-memmove.o)
                              /opt/cross/lib/gcc/arm-elf/4.2.1/../../../../arm-elf/lib/thumb/interwork/libg.a(lib_a-svfprintf.o) (memmove)
/opt/cross/lib/gcc/arm-elf/4.2.1/../../../../arm-elf/lib/thumb/interwork/libg.a(lib_a-mlock.o)
                              /opt/cross/lib/gcc/arm-elf/4.2.1/../../../../arm-elf/lib/thumb/interwork/libg.a(lib_a-freer.o) (__malloc_lock)
/opt/cross/lib/gcc/arm-elf/4.2.1/../../../../arm-elf/lib/thumb/interwork/libg.a(lib_a-mprec.o)
                              /opt/cross/lib/gcc/arm-elf/4.2.1/../../../../arm-elf/lib/thumb/interwork/libg.a(lib_a-dtoa.o) (_Bfree)
/opt/cross/lib/gcc/arm-elf/4.2.1/../../../../arm-elf/lib/thumb/interwork/libg.a(lib_a-reallocr.o)
                              /opt/cross/lib/gcc/arm-elf/4.2.1/../../../../arm-elf/lib/thumb/interwork/libg.a(lib_a-svfprintf.o) (_realloc_r)
/opt/cross/lib/gcc/arm-elf/4.2.1/../../../../arm-elf/lib/thumb/interwork/libg.a(lib_a-sbrkr.o)
                              /opt/cross/lib/gcc/arm-elf/4.2.1/../../../../arm-elf/lib/thumb/interwork/libg.a(lib_a-freer.o) (_sbrk_r)
/opt/cross/lib/gcc/arm-elf/4.2.1/../../../../arm-elf/lib/thumb/interwork/libg.a(lib_a-s_isinfd.o)
                              /opt/cross/lib/gcc/arm-elf/4.2.1/../../../../arm-elf/lib/thumb/interwork/libg.a(lib_a-svfprintf.o) (__isinfd)
/opt/cross/lib/gcc/arm-elf/4.2.1/../../../../arm-elf/lib/thumb/interwork/libg.a(lib_a-s_isnand.o)
                              /opt/cross/lib/gcc/arm-elf/4.2.1/../../../../arm-elf/lib/thumb/interwork/libg.a(lib_a-svfprintf.o) (__isnand)
/opt/cross/lib/gcc/arm-elf/4.2.1/../../../../arm-elf/lib/thumb/interwork/libg.a(lib_a-strcmp.o)
                              /opt/cross/lib/gcc/arm-elf/4.2.1/../../../../arm-elf/lib/thumb/interwork/libg.a(lib_a-locale.o) (strcmp)
/opt/cross/lib/gcc/arm-elf/4.2.1/../../../../arm-elf/lib/thumb/interwork/libg.a(lib_a-syscalls.o)
                              /opt/cross/lib/gcc/arm-elf/4.2.1/../../../../arm-elf/lib/thumb/interwork/libg.a(lib_a-sbrkr.o) (_sbrk)
/opt/cross/lib/gcc/arm-elf/4.2.1/../../../../arm-elf/lib/thumb/interwork/libg.a(lib_a-callocr.o)
                              /opt/cross/lib/gcc/arm-elf/4.2.1/../../../../arm-elf/lib/thumb/interwork/libg.a(lib_a-mprec.o) (_calloc_r)
/opt/cross/lib/gcc/arm-elf/4.2.1/../../../../arm-elf/lib/thumb/interwork/libg.a(lib_a-errno.o)
                              /opt/cross/lib/gcc/arm-elf/4.2.1/../../../../arm-elf/lib/thumb/interwork/libg.a(lib_a-syscalls.o) (__errno)
/opt/cross/lib/gcc/arm-elf/4.2.1/../../../../arm-elf/lib/thumb/interwork/libg.a(lib_a-findfp.o)
                              /opt/cross/lib/gcc/arm-elf/4.2.1/../../../../arm-elf/lib/thumb/interwork/libg.a(lib_a-syscalls.o) (__sinit)
/opt/cross/lib/gcc/arm-elf/4.2.1/../../../../arm-elf/lib/thumb/interwork/libg.a(lib_a-fwalk.o)
                              /opt/cross/lib/gcc/arm-elf/4.2.1/../../../../arm-elf/lib/thumb/interwork/libg.a(lib_a-findfp.o) (_fwalk)
/opt/cross/lib/gcc/arm-elf/4.2.1/../../../../arm-elf/lib/thumb/interwork/libg.a(lib_a-reent.o)
                              /opt/cross/lib/gcc/arm-elf/4.2.1/../../../../arm-elf/lib/thumb/interwork/libg.a(lib_a-sbrkr.o) (errno)
/opt/cross/lib/gcc/arm-elf/4.2.1/../../../../arm-elf/lib/thumb/interwork/libg.a(lib_a-stdio.o)
                              /opt/cross/lib/gcc/arm-elf/4.2.1/../../../../arm-elf/lib/thumb/interwork/libg.a(lib_a-findfp.o) (__sclose)
/opt/cross/lib/gcc/arm-elf/4.2.1/../../../../arm-elf/lib/thumb/interwork/libg.a(lib_a-writer.o)
                              /opt/cross/lib/gcc/arm-elf/4.2.1/../../../../arm-elf/lib/thumb/interwork/libg.a(lib_a-stdio.o) (_write_r)
/opt/cross/lib/gcc/arm-elf/4.2.1/../../../../arm-elf/lib/thumb/interwork/libg.a(lib_a-closer.o)
                              /opt/cross/lib/gcc/arm-elf/4.2.1/../../../../arm-elf/lib/thumb/interwork/libg.a(lib_a-stdio.o) (_close_r)
/opt/cross/lib/gcc/arm-elf/4.2.1/../../../../arm-elf/lib/thumb/interwork/libg.a(lib_a-fclose.o)
                              /opt/cross/lib/gcc/arm-elf/4.2.1/../../../../arm-elf/lib/thumb/interwork/libg.a(lib_a-findfp.o) (fclose)
/opt/cross/lib/gcc/arm-elf/4.2.1/../../../../arm-elf/lib/thumb/interwork/libg.a(lib_a-fflush.o)
                              /opt/cross/lib/gcc/arm-elf/4.2.1/../../../../arm-elf/lib/thumb/interwork/libg.a(lib_a-fclose.o) (_fflush_r)
/opt/cross/lib/gcc/arm-elf/4.2.1/../../../../arm-elf/lib/thumb/interwork/libg.a(lib_a-lseekr.o)
                              /opt/cross/lib/gcc/arm-elf/4.2.1/../../../../arm-elf/lib/thumb/interwork/libg.a(lib_a-stdio.o) (_lseek_r)
/opt/cross/lib/gcc/arm-elf/4.2.1/../../../../arm-elf/lib/thumb/interwork/libg.a(lib_a-readr.o)
                              /opt/cross/lib/gcc/arm-elf/4.2.1/../../../../arm-elf/lib/thumb/interwork/libg.a(lib_a-stdio.o) (_read_r)
/opt/cross/lib/gcc/arm-elf/4.2.1/thumb/interwork/libgcc.a(_umodsi3.o)
                              /opt/cross/lib/gcc/arm-elf/4.2.1/../../../../arm-elf/lib/thumb/interwork/libg.a(lib_a-svfprintf.o) (__umodsi3)
/opt/cross/lib/gcc/arm-elf/4.2.1/thumb/interwork/libgcc.a(_modsi3.o)
                              /opt/cross/lib/gcc/arm-elf/4.2.1/../../../../arm-elf/lib/thumb/interwork/libg.a(lib_a-svfprintf.o) (__modsi3)
/opt/cross/lib/gcc/arm-elf/4.2.1/thumb/interwork/libgcc.a(_addsub_df.o)
                              /opt/cross/lib/gcc/arm-elf/4.2.1/../../../../arm-elf/lib/thumb/interwork/libg.a(lib_a-dtoa.o) (__subdf3)
/opt/cross/lib/gcc/arm-elf/4.2.1/thumb/interwork/libgcc.a(_mul_df.o)
                              /opt/cross/lib/gcc/arm-elf/4.2.1/../../../../arm-elf/lib/thumb/interwork/libg.a(lib_a-dtoa.o) (__muldf3)
/opt/cross/lib/gcc/arm-elf/4.2.1/thumb/interwork/libgcc.a(_div_df.o)
                              /opt/cross/lib/gcc/arm-elf/4.2.1/../../../../arm-elf/lib/thumb/interwork/libg.a(lib_a-dtoa.o) (__divdf3)
/opt/cross/lib/gcc/arm-elf/4.2.1/thumb/interwork/libgcc.a(_eq_df.o)
                              /opt/cross/lib/gcc/arm-elf/4.2.1/../../../../arm-elf/lib/thumb/interwork/libg.a(lib_a-svfprintf.o) (__eqdf2)
/opt/cross/lib/gcc/arm-elf/4.2.1/thumb/interwork/libgcc.a(_ne_df.o)
                              /opt/cross/lib/gcc/arm-elf/4.2.1/../../../../arm-elf/lib/thumb/interwork/libg.a(lib_a-svfprintf.o) (__nedf2)
/opt/cross/lib/gcc/arm-elf/4.2.1/thumb/interwork/libgcc.a(_gt_df.o)
                              /opt/cross/lib/gcc/arm-elf/4.2.1/../../../../arm-elf/lib/thumb/interwork/libg.a(lib_a-dtoa.o) (__gtdf2)
/opt/cross/lib/gcc/arm-elf/4.2.1/thumb/interwork/libgcc.a(_ge_df.o)
                              /opt/cross/lib/gcc/arm-elf/4.2.1/../../../../arm-elf/lib/thumb/interwork/libg.a(lib_a-dtoa.o) (__gedf2)
/opt/cross/lib/gcc/arm-elf/4.2.1/thumb/interwork/libgcc.a(_lt_df.o)
                              /opt/cross/lib/gcc/arm-elf/4.2.1/../../../../arm-elf/lib/thumb/interwork/libg.a(lib_a-svfprintf.o) (__ltdf2)
/opt/cross/lib/gcc/arm-elf/4.2.1/thumb/interwork/libgcc.a(_si_to_df.o)
                              /opt/cross/lib/gcc/arm-elf/4.2.1/../../../../arm-elf/lib/thumb/interwork/libg.a(lib_a-dtoa.o) (__floatsidf)
/opt/cross/lib/gcc/arm-elf/4.2.1/thumb/interwork/libgcc.a(_df_to_si.o)
                              /opt/cross/lib/gcc/arm-elf/4.2.1/../../../../arm-elf/lib/thumb/interwork/libg.a(lib_a-dtoa.o) (__fixdfsi)
/opt/cross/lib/gcc/arm-elf/4.2.1/thumb/interwork/libgcc.a(_thenan_df.o)
                              /opt/cross/lib/gcc/arm-elf/4.2.1/thumb/interwork/libgcc.a(_addsub_df.o) (__thenan_df)
/opt/cross/lib/gcc/arm-elf/4.2.1/thumb/interwork/libgcc.a(_usi_to_df.o)
                              /opt/cross/lib/gcc/arm-elf/4.2.1/../../../../arm-elf/lib/thumb/interwork/libg.a(lib_a-dtoa.o) (__floatunsidf)
/opt/cross/lib/gcc/arm-elf/4.2.1/thumb/interwork/libgcc.a(_muldi3.o)
                              /opt/cross/lib/gcc/arm-elf/4.2.1/thumb/interwork/libgcc.a(_mul_df.o) (__muldi3)
/opt/cross/lib/gcc/arm-elf/4.2.1/thumb/interwork/libgcc.a(_clzsi2.o)
                              /opt/cross/lib/gcc/arm-elf/4.2.1/thumb/interwork/libgcc.a(_si_to_df.o) (__clzsi2)
/opt/cross/lib/gcc/arm-elf/4.2.1/thumb/interwork/libgcc.a(_pack_df.o)
                              /opt/cross/lib/gcc/arm-elf/4.2.1/thumb/interwork/libgcc.a(_addsub_df.o) (__pack_d)
/opt/cross/lib/gcc/arm-elf/4.2.1/thumb/interwork/libgcc.a(_unpack_df.o)
                              /opt/cross/lib/gcc/arm-elf/4.2.1/thumb/interwork/libgcc.a(_addsub_df.o) (__unpack_d)
/opt/cross/lib/gcc/arm-elf/4.2.1/thumb/interwork/libgcc.a(_fpcmp_parts_df.o)
                              /opt/cross/lib/gcc/arm-elf/4.2.1/thumb/interwork/libgcc.a(_eq_df.o) (__fpcmp_parts_d)
/opt/cross/lib/gcc/arm-elf/4.2.1/thumb/interwork/libgcc.a(_clz.o)
                              /opt/cross/lib/gcc/arm-elf/4.2.1/thumb/interwork/libgcc.a(_clzsi2.o) (__clz_tab)

Allocating common symbols
Common symbol       size              file

I2C1ReceiveData     0x40              ../Common/drivers/LPC/i2c/i2c.o
errno               0x4               /opt/cross/lib/gcc/arm-elf/4.2.1/../../../../arm-elf/lib/thumb/interwork/libg.a(lib_a-reent.o)
xHighPriorityTask   0x4               ../Common/Minimal/QPeek.o
xMediumPriorityTask
                    0x4               ../Common/Minimal/QPeek.o
I2C0ReceiveData     0x40              ../Common/drivers/LPC/i2c/i2c.o
I2C2TransmitData    0x40              ../Common/drivers/LPC/i2c/i2c.o
I2C0TransmitData    0x40              ../Common/drivers/LPC/i2c/i2c.o
buffer              0x40              ../Common/drivers/LPC/printf/printfHelpers.o
I2C1TransmitData    0x40              ../Common/drivers/LPC/i2c/i2c.o
xHighestPriorityTask
                    0x4               ../Common/Minimal/QPeek.o
I2C2ReceiveData     0x40              ../Common/drivers/LPC/i2c/i2c.o
xSuspendedTestQueue
                    0x4               ../Common/Minimal/dynamic.o

Memory Configuration

Name             Origin             Length             Attributes
flash            0x00000000         0x0007d000
ram              0x40000000         0x00008000
usbram           0x7fd00000         0x00002000
ethram           0x7fe00000         0x00004000
*default*        0x00000000         0xffffffff

Linker script and memory map

LOAD ../Common/drivers/LPC/peripherals/pwm.o
LOAD ../Common/drivers/LPC/serial/serial.o
LOAD ../Common/drivers/LPC/serial/serialISR.o
LOAD ../Common/drivers/LPC/printf/uart0PutChar2.o
LOAD ../Common/drivers/LPC/printf/printf2.o
LOAD ../Common/drivers/LPC/printf/printfHelpers.o
LOAD ../Common/drivers/LPC/i2c/i2c.o
LOAD ../Source/portable/GCC/ARM7_LPC23xx/portISR.o
LOAD main.o
LOAD ../Common/Minimal/BlockQ.o
LOAD ../Common/Minimal/blocktim.o
LOAD ../Common/Minimal/integer.o
LOAD ../Common/Minimal/GenQTest.o
LOAD ../Common/Minimal/QPeek.o
LOAD ../Common/Minimal/dynamic.o
LOAD ../Source/list.o
LOAD ../Source/queue.o
LOAD ../Source/tasks.o
LOAD ../Source/portable/GCC/ARM7_LPC23xx/port.o
LOAD ../Source/portable/MemMang/heap_2.o
LOAD /tmp/ccyCmckx.o
START GROUP
LOAD /opt/cross/lib/gcc/arm-elf/4.2.1/thumb/interwork/libgcc.a
LOAD /opt/cross/lib/gcc/arm-elf/4.2.1/../../../../arm-elf/lib/thumb/interwork/libg.a
LOAD /opt/cross/lib/gcc/arm-elf/4.2.1/../../../../arm-elf/lib/thumb/interwork/libc.a
END GROUP
                0x40007ffc                __stack_end__ = 0x40007ffc
                0x00000000                . = 0x0

startup         0x00000000       0x44
 *(.startup)
 .startup       0x00000000       0x44 /tmp/ccyCmckx.o

prog            0x00000048     0xaaf4
 *(.text)
 .text.stub     0x00000048       0x60 linker stubs
 .text          0x000000a8      0x404 ../Common/drivers/LPC/peripherals/pwm.o
                0x00000194                setupPWMChannel
                0x000000a8                setPWMDutyCycle
                0x00000304                setPWMMatchReg
                0x000003d4                PWMinit
 .text          0x000004ac      0x474 ../Common/drivers/LPC/serial/serial.o
                0x000006e8                vSerialPutString
                0x0000050c                xSerialPutChar
                0x000004ac                xSerialGetChar
                0x000006a8                vSerialPutBinary
                0x00000730                xSerialPortInitMinimal
 .text          0x00000920      0x3e0 ../Common/drivers/LPC/serial/serialISR.o
                0x00000aa0                vUART_ISR
                0x00000c20                vSerialISRCreateQueues
                0x00000920                vUART_ISR1
 .text          0x00000d00       0x2c ../Common/drivers/LPC/printf/uart0PutChar2.o
                0x00000d00                putchar2
 .text          0x00000d2c      0x228 ../Common/drivers/LPC/printf/printf2.o
                0x00000da4                print
                0x00000f28                printf2
                0x00000d2c                printSignedInt
                0x00000d68                printUnsignedInt
 .text          0x00000f54      0x280 ../Common/drivers/LPC/printf/printfHelpers.o
                0x00001094                toString2U
                0x00001178                toBinaryString
                0x00000f7c                max
                0x00000f8c                toString2
                0x00001168                toString
                0x00000f54                hexch
 .text          0x000011d4      0x89c ../Common/drivers/LPC/i2c/i2c.o
                0x000012dc                i2c0_isr
                0x00001820                I2Cinit
                0x000011dc                I2C0MasterTX
                0x000011d4                i2c1_isr
                0x000011d8                i2c2_isr
                0x0000125c                I2C1MasterRX
 .text          0x00001a70      0x258 ../Source/portable/GCC/ARM7_LPC23xx/portISR.o
                0x00001b5c                vPreemptiveTick
                0x00001b18                vPortExitCritical
                0x00001c1c                vPortYieldProcessor
                0x00001abc                vPortDisableInterruptsFromThumb
                0x00001a70                vPortISRStartFirstTask
                0x00001ad4                vPortEnableInterruptsFromThumb
                0x00001aec                vPortEnterCritical
 .text          0x00001cc8      0x250 main.o
                0x00001ce0                enableSerial0
                0x00001d08                vApplicationTickHook
                0x00001cc8                microsecondsToCPUTicks
                0x00001d98                main
                0x00001cd4                milisecondsToCPUTicks
 .text          0x00001f18      0x23c ../Common/Minimal/BlockQ.o
                0x00001f7c                vStartBlockingQueueTasks
                0x00001f18                xAreBlockingQueuesStillRunning
 .text          0x00002154      0x3e0 ../Common/Minimal/blocktim.o
                0x00002154                xAreBlockTimeTestTasksStillRunning
                0x000021ac                vCreateBlockTimeTasks
 .text          0x00002534       0x98 ../Common/Minimal/integer.o
                0x00002554                vStartIntegerMathTasks
                0x00002534                xAreIntegerMathsTaskStillRunning
 .text          0x000025cc      0x4a0 ../Common/Minimal/GenQTest.o
                0x000025cc                xAreGenericQueueTasksStillRunning
                0x00002624                vStartGenericQueueTasks
 .text          0x00002a6c      0x358 ../Common/Minimal/QPeek.o
                0x00002a6c                xAreQueuePeekTasksStillRunning
                0x00002aa0                vStartQueuePeekTasks
 .text          0x00002dc4      0x284 ../Common/Minimal/dynamic.o
                0x00002e10                vStartDynamicPriorityTasks
                0x00002dc4                xAreDynamicPriorityTasksStillRunning
 .text          0x00003048       0x9c ../Source/list.o
                0x00003068                vListInsertEnd
                0x000030c4                vListRemove
                0x00003060                vListInitialiseItem
                0x00003048                vListInitialise
                0x00003084                vListInsert
 .text          0x000030e4      0x4c8 ../Source/queue.o
                0x000033bc                xQueueGenericSendFromISR
                0x00003540                xQueueCreate
                0x00003104                vQueueDelete
                0x00003408                xQueueGenericSend
                0x00003160                xQueueReceiveFromISR
                0x000030f4                xQueueIsQueueFullFromISR
                0x0000311c                uxQueueMessagesWaiting
                0x00003230                xQueueGenericReceive
                0x000030e4                uxQueueMessagesWaitingFromISR
                0x000030e8                xQueueIsQueueEmptyFromISR
                0x000034f8                xQueueCreateMutex
 .text          0x000035ac      0xcfc ../Source/tasks.o
                0x00003b54                uxTaskPriorityGet
                0x00003aa8                vTaskPrioritySet
                0x0000403c                vTaskEndScheduler
                0x00003bec                vTaskPlaceOnEventList
                0x000035ac                xTaskIsTaskSuspended
                0x00003830                xTaskResumeFromISR
                0x0000392c                ulTaskEndTrace
                0x000039b0                xTaskGetTickCount
                0x000037b4                xTaskRemoveFromEventList
                0x00003958                vTaskStartTrace
                0x00003b7c                vTaskDelete
                0x000038d0                xTaskCheckForTimeOut
                0x000039cc                vTaskSuspendAll
                0x000036f8                vTaskPriorityDisinherit
                0x00003744                vTaskPriorityInherit
                0x000039e8                vTaskResume
                0x000035d4                vTaskSwitchContext
                0x00003a50                vTaskSuspend
                0x00003994                uxTaskGetNumberOfTasks
                0x00003c5c                vTaskIncrementTick
                0x00003f88                vTaskList
                0x00003e74                vTaskDelayUntil
                0x000038b4                xTaskGetCurrentTaskHandle
                0x000036d8                usTaskCheckFreeStackSpace
                0x00003d3c                xTaskResumeAll
                0x00004264                vTaskStartScheduler
                0x000036cc                vTaskMissedYield
                0x000040c8                xTaskCreate
                0x00003e10                vTaskDelay
                0x000036b4                vTaskSetTimeOutState
 .text          0x000042a8      0x114 ../Source/portable/GCC/ARM7_LPC23xx/port.o
                0x00004350                xPortStartScheduler
                0x0000434c                vPortEndScheduler
                0x000042a8                pxPortInitialiseStack
 .text          0x000043bc       0xe4 ../Source/portable/MemMang/heap_2.o
                0x000043bc                vPortFree
                0x000043ec                pvPortMalloc
 .text          0x000044a0       0xb8 /tmp/ccyCmckx.o
                0x000044a0                start
                0x0000453c                endless_loop
 .text          0x00004558       0x8c /opt/cross/lib/gcc/arm-elf/4.2.1/thumb/interwork/libgcc.a(_udivsi3.o)
                0x00004558                __udivsi3
                0x00004558                __aeabi_uidiv
                0x000045d4                __aeabi_uidivmod
 .text          0x000045e4       0xa4 /opt/cross/lib/gcc/arm-elf/4.2.1/thumb/interwork/libgcc.a(_divsi3.o)
                0x000045e4                __aeabi_idiv
                0x000045e4                __divsi3
                0x00004678                __aeabi_idivmod
 .text          0x00004688        0x4 /opt/cross/lib/gcc/arm-elf/4.2.1/thumb/interwork/libgcc.a(_dvmd_tls.o)
                0x00004688                __aeabi_ldiv0
                0x00004688                __div0
                0x00004688                __aeabi_idiv0
 .text          0x0000468c       0x58 /opt/cross/lib/gcc/arm-elf/4.2.1/../../../../arm-elf/lib/thumb/interwork/libg.a(lib_a-memcpy.o)
                0x0000468c                memcpy
 .text          0x000046e4       0x70 /opt/cross/lib/gcc/arm-elf/4.2.1/../../../../arm-elf/lib/thumb/interwork/libg.a(lib_a-memset.o)
                0x000046e4                memset
 .text          0x00004754       0x8c /opt/cross/lib/gcc/arm-elf/4.2.1/../../../../arm-elf/lib/thumb/interwork/libg.a(lib_a-sprintf.o)
                0x0000479c                _sprintf_r
                0x00004754                sprintf
 .text          0x000047e0       0x40 /opt/cross/lib/gcc/arm-elf/4.2.1/../../../../arm-elf/lib/thumb/interwork/libg.a(lib_a-strcat.o)
                0x000047e0                strcat
 .text          0x00004820       0x48 /opt/cross/lib/gcc/arm-elf/4.2.1/../../../../arm-elf/lib/thumb/interwork/libg.a(lib_a-strcpy.o)
                0x00004820                strcpy
 .text          0x00004868       0x50 /opt/cross/lib/gcc/arm-elf/4.2.1/../../../../arm-elf/lib/thumb/interwork/libg.a(lib_a-strlen.o)
                0x00004868                strlen
 .text          0x000048b8       0x7c /opt/cross/lib/gcc/arm-elf/4.2.1/../../../../arm-elf/lib/thumb/interwork/libg.a(lib_a-strncpy.o)
                0x000048b8                strncpy
 .text          0x00004934     0x13a4 /opt/cross/lib/gcc/arm-elf/4.2.1/../../../../arm-elf/lib/thumb/interwork/libg.a(lib_a-svfprintf.o)
                0x00004a54                _svfprintf_r
 .text          0x00005cd8      0xf08 /opt/cross/lib/gcc/arm-elf/4.2.1/../../../../arm-elf/lib/thumb/interwork/libg.a(lib_a-dtoa.o)
                0x00005e50                _dtoa_r
 .text          0x00006be0      0x280 /opt/cross/lib/gcc/arm-elf/4.2.1/../../../../arm-elf/lib/thumb/interwork/libg.a(lib_a-freer.o)
                0x00006c84                _free_r
                0x00006be0                _malloc_trim_r
 .text          0x00006e60        0x0 /opt/cross/lib/gcc/arm-elf/4.2.1/../../../../arm-elf/lib/thumb/interwork/libg.a(lib_a-impure.o)
 .text          0x00006e60       0x88 /opt/cross/lib/gcc/arm-elf/4.2.1/../../../../arm-elf/lib/thumb/interwork/libg.a(lib_a-locale.o)
                0x00006e88                _setlocale_r
                0x00006e60                __locale_charset
                0x00006e6c                _localeconv_r
                0x00006ecc                setlocale
                0x00006e74                localeconv
 .text          0x00006ee8      0x55c /opt/cross/lib/gcc/arm-elf/4.2.1/../../../../arm-elf/lib/thumb/interwork/libg.a(lib_a-mallocr.o)
                0x00006ee8                _malloc_r
 .text          0x00007444       0x6c /opt/cross/lib/gcc/arm-elf/4.2.1/../../../../arm-elf/lib/thumb/interwork/libg.a(lib_a-memchr.o)
                0x00007444                memchr
 .text          0x000074b0       0x7c /opt/cross/lib/gcc/arm-elf/4.2.1/../../../../arm-elf/lib/thumb/interwork/libg.a(lib_a-memmove.o)
                0x000074b0                memmove
 .text          0x0000752c        0x8 /opt/cross/lib/gcc/arm-elf/4.2.1/../../../../arm-elf/lib/thumb/interwork/libg.a(lib_a-mlock.o)
                0x00007530                __malloc_unlock
                0x0000752c                __malloc_lock
 .text          0x00007534      0x970 /opt/cross/lib/gcc/arm-elf/4.2.1/../../../../arm-elf/lib/thumb/interwork/libg.a(lib_a-mprec.o)
                0x000077a4                _mprec_log10
                0x00007820                __any_on
                0x00007874                _Balloc
                0x00007750                __ratio
                0x00007cb0                __i2b
                0x0000768c                __b2d
                0x00007e0c                __s2b
                0x000075f8                __mcmp
                0x0000754c                __hi0bits
                0x00007d6c                __pow5mult
                0x00007aa4                __lshift
                0x00007b58                __multiply
                0x000078d0                __d2b
                0x000077e8                __copybits
                0x00007638                __ulp
                0x000079ac                __mdiff
                0x00007594                __lo0bits
                0x00007cc8                __multadd
                0x00007534                _Bfree
 .text          0x00007ea4      0x3b4 /opt/cross/lib/gcc/arm-elf/4.2.1/../../../../arm-elf/lib/thumb/interwork/libg.a(lib_a-reallocr.o)
                0x00007ea4                _realloc_r
 .text          0x00008258       0x28 /opt/cross/lib/gcc/arm-elf/4.2.1/../../../../arm-elf/lib/thumb/interwork/libg.a(lib_a-sbrkr.o)
                0x00008258                _sbrk_r
 .text          0x00008280       0x24 /opt/cross/lib/gcc/arm-elf/4.2.1/../../../../arm-elf/lib/thumb/interwork/libg.a(lib_a-s_isinfd.o)
                0x00008280                __isinfd
 .text          0x000082a4       0x1c /opt/cross/lib/gcc/arm-elf/4.2.1/../../../../arm-elf/lib/thumb/interwork/libg.a(lib_a-s_isnand.o)
                0x000082a4                __isnand
 .text          0x000082c0       0x5c /opt/cross/lib/gcc/arm-elf/4.2.1/../../../../arm-elf/lib/thumb/interwork/libg.a(lib_a-strcmp.o)
                0x000082c0                strcmp
 .text          0x0000831c      0x5b8 /opt/cross/lib/gcc/arm-elf/4.2.1/../../../../arm-elf/lib/thumb/interwork/libg.a(lib_a-syscalls.o)
                0x00008378                _getpid
                0x0000871c                initialise_monitor_handles
                0x000086f8                _fstat
                0x00008830                _isatty
                0x0000848c                _open
                0x00008388                _sbrk
                0x00008384                _raise
                0x00008854                _times
                0x000086bc                _stat
                0x0000863c                _lseek
                0x0000837c                _link
                0x00008538                _swiwrite
                0x000087a4                _rename
                0x000085ac                _swilseek
                0x000084f0                _swiclose
                0x000083e8                _swiopen
                0x000088a4                _unlink
                0x00008560                _write
                0x00008338                _kill
                0x00008878                _gettimeofday
                0x00008674                _read
                0x00008368                _exit
                0x000087e0                _system
                0x0000864c                _swiread
                0x00008528                _close
 .text          0x000088d4       0x60 /opt/cross/lib/gcc/arm-elf/4.2.1/../../../../arm-elf/lib/thumb/interwork/libg.a(lib_a-callocr.o)
                0x000088d4                _calloc_r
 .text          0x00008934        0xc /opt/cross/lib/gcc/arm-elf/4.2.1/../../../../arm-elf/lib/thumb/interwork/libg.a(lib_a-errno.o)
                0x00008934                __errno
 .text          0x00008940      0x1dc /opt/cross/lib/gcc/arm-elf/4.2.1/../../../../arm-elf/lib/thumb/interwork/libg.a(lib_a-findfp.o)
                0x000089f8                __sinit
                0x00008a54                __sfmoreglue
                0x00008998                _cleanup
                0x00008988                _cleanup_r
                0x00008970                __fp_lock_all
                0x00008940                __sfp_lock_acquire
                0x00008a8c                __sfp
                0x0000894c                __sinit_lock_release
                0x00008958                __fp_unlock_all
                0x00008944                __sfp_lock_release
                0x00008948                __sinit_lock_acquire
 .text          0x00008b1c       0xdc /opt/cross/lib/gcc/arm-elf/4.2.1/../../../../arm-elf/lib/thumb/interwork/libg.a(lib_a-fwalk.o)
                0x00008b8c                _fwalk
                0x00008b1c                _fwalk_reent
 .text          0x00008bf8      0x110 /opt/cross/lib/gcc/arm-elf/4.2.1/../../../../arm-elf/lib/thumb/interwork/libg.a(lib_a-reent.o)
                0x00008c44                cleanup_glue
                0x00008c64                _reclaim_reent
                0x00008bf8                _wrapup_reent
 .text          0x00008d08       0xa8 /opt/cross/lib/gcc/arm-elf/4.2.1/../../../../arm-elf/lib/thumb/interwork/libg.a(lib_a-stdio.o)
                0x00008d18                __sseek
                0x00008d84                __sread
                0x00008d08                __sclose
                0x00008d48                __swrite
 .text          0x00008db0       0x2c /opt/cross/lib/gcc/arm-elf/4.2.1/../../../../arm-elf/lib/thumb/interwork/libg.a(lib_a-writer.o)
                0x00008db0                _write_r
 .text          0x00008ddc       0x28 /opt/cross/lib/gcc/arm-elf/4.2.1/../../../../arm-elf/lib/thumb/interwork/libg.a(lib_a-closer.o)
                0x00008ddc                _close_r
 .text          0x00008e04       0xbc /opt/cross/lib/gcc/arm-elf/4.2.1/../../../../arm-elf/lib/thumb/interwork/libg.a(lib_a-fclose.o)
                0x00008e04                _fclose_r
                0x00008ea8                fclose
 .text          0x00008ec0      0x144 /opt/cross/lib/gcc/arm-elf/4.2.1/../../../../arm-elf/lib/thumb/interwork/libg.a(lib_a-fflush.o)
                0x00008fd4                fflush
                0x00008ec0                _fflush_r
 .text          0x00009004       0x2c /opt/cross/lib/gcc/arm-elf/4.2.1/../../../../arm-elf/lib/thumb/interwork/libg.a(lib_a-lseekr.o)
                0x00009004                _lseek_r
 .text          0x00009030       0x2c /opt/cross/lib/gcc/arm-elf/4.2.1/../../../../arm-elf/lib/thumb/interwork/libg.a(lib_a-readr.o)
                0x00009030                _read_r
 .text          0x0000905c       0xc8 /opt/cross/lib/gcc/arm-elf/4.2.1/thumb/interwork/libgcc.a(_umodsi3.o)
                0x0000905c                __umodsi3
 .text          0x00009124       0xd8 /opt/cross/lib/gcc/arm-elf/4.2.1/thumb/interwork/libgcc.a(_modsi3.o)
                0x00009124                __modsi3
 .text          0x000091fc      0x3cc /opt/cross/lib/gcc/arm-elf/4.2.1/thumb/interwork/libgcc.a(_addsub_df.o)
                0x00009590                __adddf3
                0x00009550                __subdf3
 .text          0x000095c8      0x2a8 /opt/cross/lib/gcc/arm-elf/4.2.1/thumb/interwork/libgcc.a(_mul_df.o)
                0x00009600                __muldf3
 .text          0x00009870      0x1ac /opt/cross/lib/gcc/arm-elf/4.2.1/thumb/interwork/libgcc.a(_div_df.o)
                0x000098a8                __divdf3
 .text          0x00009a1c       0x58 /opt/cross/lib/gcc/arm-elf/4.2.1/thumb/interwork/libgcc.a(_eq_df.o)
                0x00009a2c                __eqdf2
 .text          0x00009a74       0x58 /opt/cross/lib/gcc/arm-elf/4.2.1/thumb/interwork/libgcc.a(_ne_df.o)
                0x00009a84                __nedf2
 .text          0x00009acc       0x58 /opt/cross/lib/gcc/arm-elf/4.2.1/thumb/interwork/libgcc.a(_gt_df.o)
                0x00009adc                __gtdf2
 .text          0x00009b24       0x58 /opt/cross/lib/gcc/arm-elf/4.2.1/thumb/interwork/libgcc.a(_ge_df.o)
                0x00009b34                __gedf2
 .text          0x00009b7c       0x58 /opt/cross/lib/gcc/arm-elf/4.2.1/thumb/interwork/libgcc.a(_lt_df.o)
                0x00009b8c                __ltdf2
 .text          0x00009bd4       0x90 /opt/cross/lib/gcc/arm-elf/4.2.1/thumb/interwork/libgcc.a(_si_to_df.o)
                0x00009be0                __floatsidf
 .text          0x00009c64       0xb4 /opt/cross/lib/gcc/arm-elf/4.2.1/thumb/interwork/libgcc.a(_df_to_si.o)
                0x00009c94                __fixdfsi
 .text          0x00009d18        0x0 /opt/cross/lib/gcc/arm-elf/4.2.1/thumb/interwork/libgcc.a(_thenan_df.o)
 .text          0x00009d18      0x10c /opt/cross/lib/gcc/arm-elf/4.2.1/thumb/interwork/libgcc.a(_usi_to_df.o)
                0x00009d24                __floatunsidf
 .text          0x00009e24       0x84 /opt/cross/lib/gcc/arm-elf/4.2.1/thumb/interwork/libgcc.a(_muldi3.o)
                0x00009e24                __muldi3
 .text          0x00009ea8       0x3c /opt/cross/lib/gcc/arm-elf/4.2.1/thumb/interwork/libgcc.a(_clzsi2.o)
                0x00009ea8                __clzsi2
 .text          0x00009ee4      0x288 /opt/cross/lib/gcc/arm-elf/4.2.1/thumb/interwork/libgcc.a(_pack_df.o)
                0x00009f14                __pack_d
 .text          0x0000a16c       0xc4 /opt/cross/lib/gcc/arm-elf/4.2.1/thumb/interwork/libgcc.a(_unpack_df.o)
                0x0000a16c                __unpack_d
 .text          0x0000a230       0xf8 /opt/cross/lib/gcc/arm-elf/4.2.1/thumb/interwork/libgcc.a(_fpcmp_parts_df.o)
                0x0000a260                __fpcmp_parts_d
 .text          0x0000a328        0x0 /opt/cross/lib/gcc/arm-elf/4.2.1/thumb/interwork/libgcc.a(_clz.o)
 *(.rodata)
 .rodata        0x0000a328      0x184 /opt/cross/lib/gcc/arm-elf/4.2.1/../../../../arm-elf/lib/thumb/interwork/libg.a(lib_a-svfprintf.o)
 .rodata        0x0000a4ac       0x18 /opt/cross/lib/gcc/arm-elf/4.2.1/../../../../arm-elf/lib/thumb/interwork/libg.a(lib_a-dtoa.o)
 .rodata        0x0000a4c4        0x4 /opt/cross/lib/gcc/arm-elf/4.2.1/../../../../arm-elf/lib/thumb/interwork/libg.a(lib_a-impure.o)
                0x0000a4c4                _global_impure_ptr
 .rodata        0x0000a4c8       0x34 /opt/cross/lib/gcc/arm-elf/4.2.1/../../../../arm-elf/lib/thumb/interwork/libg.a(lib_a-locale.o)
 .rodata        0x0000a4fc      0x124 /opt/cross/lib/gcc/arm-elf/4.2.1/../../../../arm-elf/lib/thumb/interwork/libg.a(lib_a-mprec.o)
                0x0000a5ec                __mprec_tinytens
                0x0000a4fc                __mprec_tens
                0x0000a5c4                __mprec_bigtens
 .rodata        0x0000a620       0x14 /opt/cross/lib/gcc/arm-elf/4.2.1/thumb/interwork/libgcc.a(_thenan_df.o)
                0x0000a620                __thenan_df
 .rodata        0x0000a634      0x100 /opt/cross/lib/gcc/arm-elf/4.2.1/thumb/interwork/libgcc.a(_clz.o)
                0x0000a634                __clz_tab
 *(.rodata*)
 .rodata.str1.4
                0x0000a734      0x181 ../Common/drivers/LPC/i2c/i2c.o
                                0x184 (size before relaxing)
 *fill*         0x0000a8b5        0x3 00
 .rodata.str1.4
                0x0000a8b8       0xbd main.o
                                 0xc0 (size before relaxing)
 *fill*         0x0000a975        0x3 00
 .rodata.str1.4
                0x0000a978       0x30 ../Common/Minimal/BlockQ.o
 .rodata.str1.4
                0x0000a9a8        0xf ../Common/Minimal/blocktim.o
                                 0x10 (size before relaxing)
 *fill*         0x0000a9b7        0x1 00
 .rodata.str1.4
                0x0000a9b8        0x8 ../Common/Minimal/integer.o
 .rodata.str1.4
                0x0000a9c0       0x1f ../Common/Minimal/GenQTest.o
                                 0x20 (size before relaxing)
 *fill*         0x0000a9df        0x1 00
 .rodata.str1.4
                0x0000a9e0       0x1f ../Common/Minimal/QPeek.o
                                 0x20 (size before relaxing)
 *fill*         0x0000a9ff        0x1 00
 .rodata.str1.4
                0x0000aa00       0x28 ../Common/Minimal/dynamic.o
 .rodata.str1.4
                0x0000aa28       0x1d ../Source/tasks.o
                                 0x20 (size before relaxing)
 *fill*         0x0000aa45        0x3 00
 .rodata.str1.4
                0x0000aa48       0x5e /opt/cross/lib/gcc/arm-elf/4.2.1/../../../../arm-elf/lib/thumb/interwork/libg.a(lib_a-svfprintf.o)
                                 0x60 (size before relaxing)
 *fill*         0x0000aaa6        0x2 00
 .rodata.str1.4
                0x0000aaa8       0x10 /opt/cross/lib/gcc/arm-elf/4.2.1/../../../../arm-elf/lib/thumb/interwork/libg.a(lib_a-dtoa.o)
                                 0x14 (size before relaxing)
 .rodata.str1.4
                0x0000aab8        0x2 /opt/cross/lib/gcc/arm-elf/4.2.1/../../../../arm-elf/lib/thumb/interwork/libg.a(lib_a-impure.o)
                                  0x4 (size before relaxing)
 *fill*         0x0000aaba        0x2 00
 .rodata.str1.4
                0x0000aabc        0xf /opt/cross/lib/gcc/arm-elf/4.2.1/../../../../arm-elf/lib/thumb/interwork/libg.a(lib_a-locale.o)
                                 0x18 (size before relaxing)
 *fill*         0x0000aacb        0x1 00
 .rodata.str1.4
                0x0000aacc        0x4 /opt/cross/lib/gcc/arm-elf/4.2.1/../../../../arm-elf/lib/thumb/interwork/libg.a(lib_a-syscalls.o)
 *(.glue_7)
 .glue_7        0x0000aad0        0x0 ../Common/drivers/LPC/peripherals/pwm.o
 .glue_7        0x0000aad0        0x0 ../Common/drivers/LPC/serial/serial.o
 .glue_7        0x0000aad0        0x0 ../Common/drivers/LPC/serial/serialISR.o
 .glue_7        0x0000aad0        0x0 ../Common/drivers/LPC/printf/uart0PutChar2.o
 .glue_7        0x0000aad0        0x0 ../Common/drivers/LPC/printf/printf2.o
 .glue_7        0x0000aad0        0x0 ../Common/drivers/LPC/printf/printfHelpers.o
 .glue_7        0x0000aad0        0x0 ../Common/drivers/LPC/i2c/i2c.o
 .glue_7        0x0000aad0        0x0 ../Source/portable/GCC/ARM7_LPC23xx/portISR.o
 .glue_7        0x0000aad0        0x0 main.o
 .glue_7        0x0000aad0        0x0 ../Common/Minimal/BlockQ.o
 .glue_7        0x0000aad0        0x0 ../Common/Minimal/blocktim.o
 .glue_7        0x0000aad0        0x0 ../Common/Minimal/integer.o
 .glue_7        0x0000aad0        0x0 ../Common/Minimal/GenQTest.o
 .glue_7        0x0000aad0        0x0 ../Common/Minimal/QPeek.o
 .glue_7        0x0000aad0        0x0 ../Common/Minimal/dynamic.o
 .glue_7        0x0000aad0        0x0 ../Source/list.o
 .glue_7        0x0000aad0        0x0 ../Source/queue.o
 .glue_7        0x0000aad0        0x0 ../Source/tasks.o
 .glue_7        0x0000aad0        0x0 ../Source/portable/GCC/ARM7_LPC23xx/port.o
 .glue_7        0x0000aad0        0x0 ../Source/portable/MemMang/heap_2.o
 .glue_7        0x0000aad0        0x0 /tmp/ccyCmckx.o
 .glue_7        0x0000aad0        0x0 /opt/cross/lib/gcc/arm-elf/4.2.1/thumb/interwork/libgcc.a(_udivsi3.o)
 .glue_7        0x0000aad0        0x0 /opt/cross/lib/gcc/arm-elf/4.2.1/thumb/interwork/libgcc.a(_divsi3.o)
 .glue_7        0x0000aad0        0x0 /opt/cross/lib/gcc/arm-elf/4.2.1/thumb/interwork/libgcc.a(_dvmd_tls.o)
 .glue_7        0x0000aad0        0x0 /opt/cross/lib/gcc/arm-elf/4.2.1/../../../../arm-elf/lib/thumb/interwork/libg.a(lib_a-memcpy.o)
 .glue_7        0x0000aad0        0x0 /opt/cross/lib/gcc/arm-elf/4.2.1/../../../../arm-elf/lib/thumb/interwork/libg.a(lib_a-memset.o)
 .glue_7        0x0000aad0        0x0 /opt/cross/lib/gcc/arm-elf/4.2.1/../../../../arm-elf/lib/thumb/interwork/libg.a(lib_a-sprintf.o)
 .glue_7        0x0000aad0        0x0 /opt/cross/lib/gcc/arm-elf/4.2.1/../../../../arm-elf/lib/thumb/interwork/libg.a(lib_a-strcat.o)
 .glue_7        0x0000aad0        0x0 /opt/cross/lib/gcc/arm-elf/4.2.1/../../../../arm-elf/lib/thumb/interwork/libg.a(lib_a-strcpy.o)
 .glue_7        0x0000aad0        0x0 /opt/cross/lib/gcc/arm-elf/4.2.1/../../../../arm-elf/lib/thumb/interwork/libg.a(lib_a-strlen.o)
 .glue_7        0x0000aad0        0x0 /opt/cross/lib/gcc/arm-elf/4.2.1/../../../../arm-elf/lib/thumb/interwork/libg.a(lib_a-strncpy.o)
 .glue_7        0x0000aad0        0x0 /opt/cross/lib/gcc/arm-elf/4.2.1/../../../../arm-elf/lib/thumb/interwork/libg.a(lib_a-svfprintf.o)
 .glue_7        0x0000aad0        0x0 /opt/cross/lib/gcc/arm-elf/4.2.1/../../../../arm-elf/lib/thumb/interwork/libg.a(lib_a-dtoa.o)
 .glue_7        0x0000aad0        0x0 /opt/cross/lib/gcc/arm-elf/4.2.1/../../../../arm-elf/lib/thumb/interwork/libg.a(lib_a-freer.o)
 .glue_7        0x0000aad0        0x0 /opt/cross/lib/gcc/arm-elf/4.2.1/../../../../arm-elf/lib/thumb/interwork/libg.a(lib_a-impure.o)
 .glue_7        0x0000aad0        0x0 /opt/cross/lib/gcc/arm-elf/4.2.1/../../../../arm-elf/lib/thumb/interwork/libg.a(lib_a-locale.o)
 .glue_7        0x0000aad0        0x0 /opt/cross/lib/gcc/arm-elf/4.2.1/../../../../arm-elf/lib/thumb/interwork/libg.a(lib_a-mallocr.o)
 .glue_7        0x0000aad0        0x0 /opt/cross/lib/gcc/arm-elf/4.2.1/../../../../arm-elf/lib/thumb/interwork/libg.a(lib_a-memchr.o)
 .glue_7        0x0000aad0        0x0 /opt/cross/lib/gcc/arm-elf/4.2.1/../../../../arm-elf/lib/thumb/interwork/libg.a(lib_a-memmove.o)
 .glue_7        0x0000aad0        0x0 /opt/cross/lib/gcc/arm-elf/4.2.1/../../../../arm-elf/lib/thumb/interwork/libg.a(lib_a-mlock.o)
 .glue_7        0x0000aad0        0x0 /opt/cross/lib/gcc/arm-elf/4.2.1/../../../../arm-elf/lib/thumb/interwork/libg.a(lib_a-mprec.o)
 .glue_7        0x0000aad0        0x0 /opt/cross/lib/gcc/arm-elf/4.2.1/../../../../arm-elf/lib/thumb/interwork/libg.a(lib_a-reallocr.o)
 .glue_7        0x0000aad0        0x0 /opt/cross/lib/gcc/arm-elf/4.2.1/../../../../arm-elf/lib/thumb/interwork/libg.a(lib_a-sbrkr.o)
 .glue_7        0x0000aad0        0x0 /opt/cross/lib/gcc/arm-elf/4.2.1/../../../../arm-elf/lib/thumb/interwork/libg.a(lib_a-s_isinfd.o)
 .glue_7        0x0000aad0        0x0 /opt/cross/lib/gcc/arm-elf/4.2.1/../../../../arm-elf/lib/thumb/interwork/libg.a(lib_a-s_isnand.o)
 .glue_7        0x0000aad0        0x0 /opt/cross/lib/gcc/arm-elf/4.2.1/../../../../arm-elf/lib/thumb/interwork/libg.a(lib_a-strcmp.o)
 .glue_7        0x0000aad0        0x0 /opt/cross/lib/gcc/arm-elf/4.2.1/../../../../arm-elf/lib/thumb/interwork/libg.a(lib_a-syscalls.o)
 .glue_7        0x0000aad0        0x0 /opt/cross/lib/gcc/arm-elf/4.2.1/../../../../arm-elf/lib/thumb/interwork/libg.a(lib_a-callocr.o)
 .glue_7        0x0000aad0        0x0 /opt/cross/lib/gcc/arm-elf/4.2.1/../../../../arm-elf/lib/thumb/interwork/libg.a(lib_a-errno.o)
 .glue_7        0x0000aad0        0x0 /opt/cross/lib/gcc/arm-elf/4.2.1/../../../../arm-elf/lib/thumb/interwork/libg.a(lib_a-findfp.o)
 .glue_7        0x0000aad0        0x0 /opt/cross/lib/gcc/arm-elf/4.2.1/../../../../arm-elf/lib/thumb/interwork/libg.a(lib_a-fwalk.o)
 .glue_7        0x0000aad0        0x0 /opt/cross/lib/gcc/arm-elf/4.2.1/../../../../arm-elf/lib/thumb/interwork/libg.a(lib_a-reent.o)
 .glue_7        0x0000aad0        0x0 /opt/cross/lib/gcc/arm-elf/4.2.1/../../../../arm-elf/lib/thumb/interwork/libg.a(lib_a-stdio.o)
 .glue_7        0x0000aad0        0x0 /opt/cross/lib/gcc/arm-elf/4.2.1/../../../../arm-elf/lib/thumb/interwork/libg.a(lib_a-writer.o)
 .glue_7        0x0000aad0        0x0 /opt/cross/lib/gcc/arm-elf/4.2.1/../../../../arm-elf/lib/thumb/interwork/libg.a(lib_a-closer.o)
 .glue_7        0x0000aad0        0x0 /opt/cross/lib/gcc/arm-elf/4.2.1/../../../../arm-elf/lib/thumb/interwork/libg.a(lib_a-fclose.o)
 .glue_7        0x0000aad0        0x0 /opt/cross/lib/gcc/arm-elf/4.2.1/../../../../arm-elf/lib/thumb/interwork/libg.a(lib_a-fflush.o)
 .glue_7        0x0000aad0        0x0 /opt/cross/lib/gcc/arm-elf/4.2.1/../../../../arm-elf/lib/thumb/interwork/libg.a(lib_a-lseekr.o)
 .glue_7        0x0000aad0        0x0 /opt/cross/lib/gcc/arm-elf/4.2.1/../../../../arm-elf/lib/thumb/interwork/libg.a(lib_a-readr.o)
 .glue_7        0x0000aad0        0x0 /opt/cross/lib/gcc/arm-elf/4.2.1/thumb/interwork/libgcc.a(_umodsi3.o)
 .glue_7        0x0000aad0        0x0 /opt/cross/lib/gcc/arm-elf/4.2.1/thumb/interwork/libgcc.a(_modsi3.o)
 .glue_7        0x0000aad0        0x0 /opt/cross/lib/gcc/arm-elf/4.2.1/thumb/interwork/libgcc.a(_addsub_df.o)
 .glue_7        0x0000aad0        0x0 /opt/cross/lib/gcc/arm-elf/4.2.1/thumb/interwork/libgcc.a(_mul_df.o)
 .glue_7        0x0000aad0        0x0 /opt/cross/lib/gcc/arm-elf/4.2.1/thumb/interwork/libgcc.a(_div_df.o)
 .glue_7        0x0000aad0        0x0 /opt/cross/lib/gcc/arm-elf/4.2.1/thumb/interwork/libgcc.a(_eq_df.o)
 .glue_7        0x0000aad0        0x0 /opt/cross/lib/gcc/arm-elf/4.2.1/thumb/interwork/libgcc.a(_ne_df.o)
 .glue_7        0x0000aad0        0x0 /opt/cross/lib/gcc/arm-elf/4.2.1/thumb/interwork/libgcc.a(_gt_df.o)
 .glue_7        0x0000aad0        0x0 /opt/cross/lib/gcc/arm-elf/4.2.1/thumb/interwork/libgcc.a(_ge_df.o)
 .glue_7        0x0000aad0        0x0 /opt/cross/lib/gcc/arm-elf/4.2.1/thumb/interwork/libgcc.a(_lt_df.o)
 .glue_7        0x0000aad0        0x0 /opt/cross/lib/gcc/arm-elf/4.2.1/thumb/interwork/libgcc.a(_si_to_df.o)
 .glue_7        0x0000aad0        0x0 /opt/cross/lib/gcc/arm-elf/4.2.1/thumb/interwork/libgcc.a(_df_to_si.o)
 .glue_7        0x0000aad0        0x0 /opt/cross/lib/gcc/arm-elf/4.2.1/thumb/interwork/libgcc.a(_thenan_df.o)
 .glue_7        0x0000aad0        0x0 /opt/cross/lib/gcc/arm-elf/4.2.1/thumb/interwork/libgcc.a(_usi_to_df.o)
 .glue_7        0x0000aad0        0x0 /opt/cross/lib/gcc/arm-elf/4.2.1/thumb/interwork/libgcc.a(_muldi3.o)
 .glue_7        0x0000aad0        0x0 /opt/cross/lib/gcc/arm-elf/4.2.1/thumb/interwork/libgcc.a(_clzsi2.o)
 .glue_7        0x0000aad0       0x6c /opt/cross/lib/gcc/arm-elf/4.2.1/thumb/interwork/libgcc.a(_pack_df.o)
                0x0000ab30                __main_from_arm
                0x0000ab00                __xQueueGenericSendFromISR_from_arm
                0x0000aad0                __xQueueGenericReceive_from_arm
                0x0000aae8                ____udivsi3_from_arm
                0x0000ab0c                __xQueueCreate_from_arm
                0x0000ab18                __vTaskIncrementTick_from_arm
                0x0000aaf4                __xQueueReceiveFromISR_from_arm
                0x0000aadc                __xQueueGenericSend_from_arm
                0x0000ab24                __vTaskSwitchContext_from_arm
 .glue_7        0x0000ab3c        0x0 /opt/cross/lib/gcc/arm-elf/4.2.1/thumb/interwork/libgcc.a(_unpack_df.o)
 .glue_7        0x0000ab3c        0x0 /opt/cross/lib/gcc/arm-elf/4.2.1/thumb/interwork/libgcc.a(_fpcmp_parts_df.o)
 .glue_7        0x0000ab3c        0x0 /opt/cross/lib/gcc/arm-elf/4.2.1/thumb/interwork/libgcc.a(_clz.o)
 *(.glue_7t)
 .glue_7t       0x0000ab3c        0x0 ../Common/drivers/LPC/peripherals/pwm.o
 .glue_7t       0x0000ab3c        0x0 ../Common/drivers/LPC/serial/serial.o
 .glue_7t       0x0000ab3c        0x0 ../Common/drivers/LPC/serial/serialISR.o
 .glue_7t       0x0000ab3c        0x0 ../Common/drivers/LPC/printf/uart0PutChar2.o
 .glue_7t       0x0000ab3c        0x0 ../Common/drivers/LPC/printf/printf2.o
 .glue_7t       0x0000ab3c        0x0 ../Common/drivers/LPC/printf/printfHelpers.o
 .glue_7t       0x0000ab3c        0x0 ../Common/drivers/LPC/i2c/i2c.o
 .glue_7t       0x0000ab3c        0x0 ../Source/portable/GCC/ARM7_LPC23xx/portISR.o
 .glue_7t       0x0000ab3c        0x0 main.o
 .glue_7t       0x0000ab3c        0x0 ../Common/Minimal/BlockQ.o
 .glue_7t       0x0000ab3c        0x0 ../Common/Minimal/blocktim.o
 .glue_7t       0x0000ab3c        0x0 ../Common/Minimal/integer.o
 .glue_7t       0x0000ab3c        0x0 ../Common/Minimal/GenQTest.o
 .glue_7t       0x0000ab3c        0x0 ../Common/Minimal/QPeek.o
 .glue_7t       0x0000ab3c        0x0 ../Common/Minimal/dynamic.o
 .glue_7t       0x0000ab3c        0x0 ../Source/list.o
 .glue_7t       0x0000ab3c        0x0 ../Source/queue.o
 .glue_7t       0x0000ab3c        0x0 ../Source/tasks.o
 .glue_7t       0x0000ab3c        0x0 ../Source/portable/GCC/ARM7_LPC23xx/port.o
 .glue_7t       0x0000ab3c        0x0 ../Source/portable/MemMang/heap_2.o
 .glue_7t       0x0000ab3c        0x0 /tmp/ccyCmckx.o
 .glue_7t       0x0000ab3c        0x0 /opt/cross/lib/gcc/arm-elf/4.2.1/thumb/interwork/libgcc.a(_udivsi3.o)
 .glue_7t       0x0000ab3c        0x0 /opt/cross/lib/gcc/arm-elf/4.2.1/thumb/interwork/libgcc.a(_divsi3.o)
 .glue_7t       0x0000ab3c        0x0 /opt/cross/lib/gcc/arm-elf/4.2.1/thumb/interwork/libgcc.a(_dvmd_tls.o)
 .glue_7t       0x0000ab3c        0x0 /opt/cross/lib/gcc/arm-elf/4.2.1/../../../../arm-elf/lib/thumb/interwork/libg.a(lib_a-memcpy.o)
 .glue_7t       0x0000ab3c        0x0 /opt/cross/lib/gcc/arm-elf/4.2.1/../../../../arm-elf/lib/thumb/interwork/libg.a(lib_a-memset.o)
 .glue_7t       0x0000ab3c        0x0 /opt/cross/lib/gcc/arm-elf/4.2.1/../../../../arm-elf/lib/thumb/interwork/libg.a(lib_a-sprintf.o)
 .glue_7t       0x0000ab3c        0x0 /opt/cross/lib/gcc/arm-elf/4.2.1/../../../../arm-elf/lib/thumb/interwork/libg.a(lib_a-strcat.o)
 .glue_7t       0x0000ab3c        0x0 /opt/cross/lib/gcc/arm-elf/4.2.1/../../../../arm-elf/lib/thumb/interwork/libg.a(lib_a-strcpy.o)
 .glue_7t       0x0000ab3c        0x0 /opt/cross/lib/gcc/arm-elf/4.2.1/../../../../arm-elf/lib/thumb/interwork/libg.a(lib_a-strlen.o)
 .glue_7t       0x0000ab3c        0x0 /opt/cross/lib/gcc/arm-elf/4.2.1/../../../../arm-elf/lib/thumb/interwork/libg.a(lib_a-strncpy.o)
 .glue_7t       0x0000ab3c        0x0 /opt/cross/lib/gcc/arm-elf/4.2.1/../../../../arm-elf/lib/thumb/interwork/libg.a(lib_a-svfprintf.o)
 .glue_7t       0x0000ab3c        0x0 /opt/cross/lib/gcc/arm-elf/4.2.1/../../../../arm-elf/lib/thumb/interwork/libg.a(lib_a-dtoa.o)
 .glue_7t       0x0000ab3c        0x0 /opt/cross/lib/gcc/arm-elf/4.2.1/../../../../arm-elf/lib/thumb/interwork/libg.a(lib_a-freer.o)
 .glue_7t       0x0000ab3c        0x0 /opt/cross/lib/gcc/arm-elf/4.2.1/../../../../arm-elf/lib/thumb/interwork/libg.a(lib_a-impure.o)
 .glue_7t       0x0000ab3c        0x0 /opt/cross/lib/gcc/arm-elf/4.2.1/../../../../arm-elf/lib/thumb/interwork/libg.a(lib_a-locale.o)
 .glue_7t       0x0000ab3c        0x0 /opt/cross/lib/gcc/arm-elf/4.2.1/../../../../arm-elf/lib/thumb/interwork/libg.a(lib_a-mallocr.o)
 .glue_7t       0x0000ab3c        0x0 /opt/cross/lib/gcc/arm-elf/4.2.1/../../../../arm-elf/lib/thumb/interwork/libg.a(lib_a-memchr.o)
 .glue_7t       0x0000ab3c        0x0 /opt/cross/lib/gcc/arm-elf/4.2.1/../../../../arm-elf/lib/thumb/interwork/libg.a(lib_a-memmove.o)
 .glue_7t       0x0000ab3c        0x0 /opt/cross/lib/gcc/arm-elf/4.2.1/../../../../arm-elf/lib/thumb/interwork/libg.a(lib_a-mlock.o)
 .glue_7t       0x0000ab3c        0x0 /opt/cross/lib/gcc/arm-elf/4.2.1/../../../../arm-elf/lib/thumb/interwork/libg.a(lib_a-mprec.o)
 .glue_7t       0x0000ab3c        0x0 /opt/cross/lib/gcc/arm-elf/4.2.1/../../../../arm-elf/lib/thumb/interwork/libg.a(lib_a-reallocr.o)
 .glue_7t       0x0000ab3c        0x0 /opt/cross/lib/gcc/arm-elf/4.2.1/../../../../arm-elf/lib/thumb/interwork/libg.a(lib_a-sbrkr.o)
 .glue_7t       0x0000ab3c        0x0 /opt/cross/lib/gcc/arm-elf/4.2.1/../../../../arm-elf/lib/thumb/interwork/libg.a(lib_a-s_isinfd.o)
 .glue_7t       0x0000ab3c        0x0 /opt/cross/lib/gcc/arm-elf/4.2.1/../../../../arm-elf/lib/thumb/interwork/libg.a(lib_a-s_isnand.o)
 .glue_7t       0x0000ab3c        0x0 /opt/cross/lib/gcc/arm-elf/4.2.1/../../../../arm-elf/lib/thumb/interwork/libg.a(lib_a-strcmp.o)
 .glue_7t       0x0000ab3c        0x0 /opt/cross/lib/gcc/arm-elf/4.2.1/../../../../arm-elf/lib/thumb/interwork/libg.a(lib_a-syscalls.o)
 .glue_7t       0x0000ab3c        0x0 /opt/cross/lib/gcc/arm-elf/4.2.1/../../../../arm-elf/lib/thumb/interwork/libg.a(lib_a-callocr.o)
 .glue_7t       0x0000ab3c        0x0 /opt/cross/lib/gcc/arm-elf/4.2.1/../../../../arm-elf/lib/thumb/interwork/libg.a(lib_a-errno.o)
 .glue_7t       0x0000ab3c        0x0 /opt/cross/lib/gcc/arm-elf/4.2.1/../../../../arm-elf/lib/thumb/interwork/libg.a(lib_a-findfp.o)
 .glue_7t       0x0000ab3c        0x0 /opt/cross/lib/gcc/arm-elf/4.2.1/../../../../arm-elf/lib/thumb/interwork/libg.a(lib_a-fwalk.o)
 .glue_7t       0x0000ab3c        0x0 /opt/cross/lib/gcc/arm-elf/4.2.1/../../../../arm-elf/lib/thumb/interwork/libg.a(lib_a-reent.o)
 .glue_7t       0x0000ab3c        0x0 /opt/cross/lib/gcc/arm-elf/4.2.1/../../../../arm-elf/lib/thumb/interwork/libg.a(lib_a-stdio.o)
 .glue_7t       0x0000ab3c        0x0 /opt/cross/lib/gcc/arm-elf/4.2.1/../../../../arm-elf/lib/thumb/interwork/libg.a(lib_a-writer.o)
 .glue_7t       0x0000ab3c        0x0 /opt/cross/lib/gcc/arm-elf/4.2.1/../../../../arm-elf/lib/thumb/interwork/libg.a(lib_a-closer.o)
 .glue_7t       0x0000ab3c        0x0 /opt/cross/lib/gcc/arm-elf/4.2.1/../../../../arm-elf/lib/thumb/interwork/libg.a(lib_a-fclose.o)
 .glue_7t       0x0000ab3c        0x0 /opt/cross/lib/gcc/arm-elf/4.2.1/../../../../arm-elf/lib/thumb/interwork/libg.a(lib_a-fflush.o)
 .glue_7t       0x0000ab3c        0x0 /opt/cross/lib/gcc/arm-elf/4.2.1/../../../../arm-elf/lib/thumb/interwork/libg.a(lib_a-lseekr.o)
 .glue_7t       0x0000ab3c        0x0 /opt/cross/lib/gcc/arm-elf/4.2.1/../../../../arm-elf/lib/thumb/interwork/libg.a(lib_a-readr.o)
 .glue_7t       0x0000ab3c        0x0 /opt/cross/lib/gcc/arm-elf/4.2.1/thumb/interwork/libgcc.a(_umodsi3.o)
 .glue_7t       0x0000ab3c        0x0 /opt/cross/lib/gcc/arm-elf/4.2.1/thumb/interwork/libgcc.a(_modsi3.o)
 .glue_7t       0x0000ab3c        0x0 /opt/cross/lib/gcc/arm-elf/4.2.1/thumb/interwork/libgcc.a(_addsub_df.o)
 .glue_7t       0x0000ab3c        0x0 /opt/cross/lib/gcc/arm-elf/4.2.1/thumb/interwork/libgcc.a(_mul_df.o)
 .glue_7t       0x0000ab3c        0x0 /opt/cross/lib/gcc/arm-elf/4.2.1/thumb/interwork/libgcc.a(_div_df.o)
 .glue_7t       0x0000ab3c        0x0 /opt/cross/lib/gcc/arm-elf/4.2.1/thumb/interwork/libgcc.a(_eq_df.o)
 .glue_7t       0x0000ab3c        0x0 /opt/cross/lib/gcc/arm-elf/4.2.1/thumb/interwork/libgcc.a(_ne_df.o)
 .glue_7t       0x0000ab3c        0x0 /opt/cross/lib/gcc/arm-elf/4.2.1/thumb/interwork/libgcc.a(_gt_df.o)
 .glue_7t       0x0000ab3c        0x0 /opt/cross/lib/gcc/arm-elf/4.2.1/thumb/interwork/libgcc.a(_ge_df.o)
 .glue_7t       0x0000ab3c        0x0 /opt/cross/lib/gcc/arm-elf/4.2.1/thumb/interwork/libgcc.a(_lt_df.o)
 .glue_7t       0x0000ab3c        0x0 /opt/cross/lib/gcc/arm-elf/4.2.1/thumb/interwork/libgcc.a(_si_to_df.o)
 .glue_7t       0x0000ab3c        0x0 /opt/cross/lib/gcc/arm-elf/4.2.1/thumb/interwork/libgcc.a(_df_to_si.o)
 .glue_7t       0x0000ab3c        0x0 /opt/cross/lib/gcc/arm-elf/4.2.1/thumb/interwork/libgcc.a(_thenan_df.o)
 .glue_7t       0x0000ab3c        0x0 /opt/cross/lib/gcc/arm-elf/4.2.1/thumb/interwork/libgcc.a(_usi_to_df.o)
 .glue_7t       0x0000ab3c        0x0 /opt/cross/lib/gcc/arm-elf/4.2.1/thumb/interwork/libgcc.a(_muldi3.o)
 .glue_7t       0x0000ab3c        0x0 /opt/cross/lib/gcc/arm-elf/4.2.1/thumb/interwork/libgcc.a(_clzsi2.o)
 .glue_7t       0x0000ab3c        0x0 /opt/cross/lib/gcc/arm-elf/4.2.1/thumb/interwork/libgcc.a(_pack_df.o)
 .glue_7t       0x0000ab3c        0x0 /opt/cross/lib/gcc/arm-elf/4.2.1/thumb/interwork/libgcc.a(_unpack_df.o)
 .glue_7t       0x0000ab3c        0x0 /opt/cross/lib/gcc/arm-elf/4.2.1/thumb/interwork/libgcc.a(_fpcmp_parts_df.o)
 .glue_7t       0x0000ab3c        0x0 /opt/cross/lib/gcc/arm-elf/4.2.1/thumb/interwork/libgcc.a(_clz.o)
                0x0000ab3c                __end_of_text__ = .

.vfp11_veneer   0x0000ab3c        0x0
 .vfp11_veneer  0x0000ab3c        0x0 ../Common/drivers/LPC/peripherals/pwm.o
 .vfp11_veneer  0x0000ab3c        0x0 ../Common/drivers/LPC/serial/serial.o
 .vfp11_veneer  0x0000ab3c        0x0 ../Common/drivers/LPC/serial/serialISR.o
 .vfp11_veneer  0x0000ab3c        0x0 ../Common/drivers/LPC/printf/uart0PutChar2.o
 .vfp11_veneer  0x0000ab3c        0x0 ../Common/drivers/LPC/printf/printf2.o
 .vfp11_veneer  0x0000ab3c        0x0 ../Common/drivers/LPC/printf/printfHelpers.o
 .vfp11_veneer  0x0000ab3c        0x0 ../Common/drivers/LPC/i2c/i2c.o
 .vfp11_veneer  0x0000ab3c        0x0 ../Source/portable/GCC/ARM7_LPC23xx/portISR.o
 .vfp11_veneer  0x0000ab3c        0x0 main.o
 .vfp11_veneer  0x0000ab3c        0x0 ../Common/Minimal/BlockQ.o
 .vfp11_veneer  0x0000ab3c        0x0 ../Common/Minimal/blocktim.o
 .vfp11_veneer  0x0000ab3c        0x0 ../Common/Minimal/integer.o
 .vfp11_veneer  0x0000ab3c        0x0 ../Common/Minimal/GenQTest.o
 .vfp11_veneer  0x0000ab3c        0x0 ../Common/Minimal/QPeek.o
 .vfp11_veneer  0x0000ab3c        0x0 ../Common/Minimal/dynamic.o
 .vfp11_veneer  0x0000ab3c        0x0 ../Source/list.o
 .vfp11_veneer  0x0000ab3c        0x0 ../Source/queue.o
 .vfp11_veneer  0x0000ab3c        0x0 ../Source/tasks.o
 .vfp11_veneer  0x0000ab3c        0x0 ../Source/portable/GCC/ARM7_LPC23xx/port.o
 .vfp11_veneer  0x0000ab3c        0x0 ../Source/portable/MemMang/heap_2.o
 .vfp11_veneer  0x0000ab3c        0x0 /tmp/ccyCmckx.o
 .vfp11_veneer  0x0000ab3c        0x0 /opt/cross/lib/gcc/arm-elf/4.2.1/thumb/interwork/libgcc.a(_udivsi3.o)
 .vfp11_veneer  0x0000ab3c        0x0 /opt/cross/lib/gcc/arm-elf/4.2.1/thumb/interwork/libgcc.a(_divsi3.o)
 .vfp11_veneer  0x0000ab3c        0x0 /opt/cross/lib/gcc/arm-elf/4.2.1/thumb/interwork/libgcc.a(_dvmd_tls.o)
 .vfp11_veneer  0x0000ab3c        0x0 /opt/cross/lib/gcc/arm-elf/4.2.1/../../../../arm-elf/lib/thumb/interwork/libg.a(lib_a-memcpy.o)
 .vfp11_veneer  0x0000ab3c        0x0 /opt/cross/lib/gcc/arm-elf/4.2.1/../../../../arm-elf/lib/thumb/interwork/libg.a(lib_a-memset.o)
 .vfp11_veneer  0x0000ab3c        0x0 /opt/cross/lib/gcc/arm-elf/4.2.1/../../../../arm-elf/lib/thumb/interwork/libg.a(lib_a-sprintf.o)
 .vfp11_veneer  0x0000ab3c        0x0 /opt/cross/lib/gcc/arm-elf/4.2.1/../../../../arm-elf/lib/thumb/interwork/libg.a(lib_a-strcat.o)
 .vfp11_veneer  0x0000ab3c        0x0 /opt/cross/lib/gcc/arm-elf/4.2.1/../../../../arm-elf/lib/thumb/interwork/libg.a(lib_a-strcpy.o)
 .vfp11_veneer  0x0000ab3c        0x0 /opt/cross/lib/gcc/arm-elf/4.2.1/../../../../arm-elf/lib/thumb/interwork/libg.a(lib_a-strlen.o)
 .vfp11_veneer  0x0000ab3c        0x0 /opt/cross/lib/gcc/arm-elf/4.2.1/../../../../arm-elf/lib/thumb/interwork/libg.a(lib_a-strncpy.o)
 .vfp11_veneer  0x0000ab3c        0x0 /opt/cross/lib/gcc/arm-elf/4.2.1/../../../../arm-elf/lib/thumb/interwork/libg.a(lib_a-svfprintf.o)
 .vfp11_veneer  0x0000ab3c        0x0 /opt/cross/lib/gcc/arm-elf/4.2.1/../../../../arm-elf/lib/thumb/interwork/libg.a(lib_a-dtoa.o)
 .vfp11_veneer  0x0000ab3c        0x0 /opt/cross/lib/gcc/arm-elf/4.2.1/../../../../arm-elf/lib/thumb/interwork/libg.a(lib_a-freer.o)
 .vfp11_veneer  0x0000ab3c        0x0 /opt/cross/lib/gcc/arm-elf/4.2.1/../../../../arm-elf/lib/thumb/interwork/libg.a(lib_a-impure.o)
 .vfp11_veneer  0x0000ab3c        0x0 /opt/cross/lib/gcc/arm-elf/4.2.1/../../../../arm-elf/lib/thumb/interwork/libg.a(lib_a-locale.o)
 .vfp11_veneer  0x0000ab3c        0x0 /opt/cross/lib/gcc/arm-elf/4.2.1/../../../../arm-elf/lib/thumb/interwork/libg.a(lib_a-mallocr.o)
 .vfp11_veneer  0x0000ab3c        0x0 /opt/cross/lib/gcc/arm-elf/4.2.1/../../../../arm-elf/lib/thumb/interwork/libg.a(lib_a-memchr.o)
 .vfp11_veneer  0x0000ab3c        0x0 /opt/cross/lib/gcc/arm-elf/4.2.1/../../../../arm-elf/lib/thumb/interwork/libg.a(lib_a-memmove.o)
 .vfp11_veneer  0x0000ab3c        0x0 /opt/cross/lib/gcc/arm-elf/4.2.1/../../../../arm-elf/lib/thumb/interwork/libg.a(lib_a-mlock.o)
 .vfp11_veneer  0x0000ab3c        0x0 /opt/cross/lib/gcc/arm-elf/4.2.1/../../../../arm-elf/lib/thumb/interwork/libg.a(lib_a-mprec.o)
 .vfp11_veneer  0x0000ab3c        0x0 /opt/cross/lib/gcc/arm-elf/4.2.1/../../../../arm-elf/lib/thumb/interwork/libg.a(lib_a-reallocr.o)
 .vfp11_veneer  0x0000ab3c        0x0 /opt/cross/lib/gcc/arm-elf/4.2.1/../../../../arm-elf/lib/thumb/interwork/libg.a(lib_a-sbrkr.o)
 .vfp11_veneer  0x0000ab3c        0x0 /opt/cross/lib/gcc/arm-elf/4.2.1/../../../../arm-elf/lib/thumb/interwork/libg.a(lib_a-s_isinfd.o)
 .vfp11_veneer  0x0000ab3c        0x0 /opt/cross/lib/gcc/arm-elf/4.2.1/../../../../arm-elf/lib/thumb/interwork/libg.a(lib_a-s_isnand.o)
 .vfp11_veneer  0x0000ab3c        0x0 /opt/cross/lib/gcc/arm-elf/4.2.1/../../../../arm-elf/lib/thumb/interwork/libg.a(lib_a-strcmp.o)
 .vfp11_veneer  0x0000ab3c        0x0 /opt/cross/lib/gcc/arm-elf/4.2.1/../../../../arm-elf/lib/thumb/interwork/libg.a(lib_a-syscalls.o)
 .vfp11_veneer  0x0000ab3c        0x0 /opt/cross/lib/gcc/arm-elf/4.2.1/../../../../arm-elf/lib/thumb/interwork/libg.a(lib_a-callocr.o)
 .vfp11_veneer  0x0000ab3c        0x0 /opt/cross/lib/gcc/arm-elf/4.2.1/../../../../arm-elf/lib/thumb/interwork/libg.a(lib_a-errno.o)
 .vfp11_veneer  0x0000ab3c        0x0 /opt/cross/lib/gcc/arm-elf/4.2.1/../../../../arm-elf/lib/thumb/interwork/libg.a(lib_a-findfp.o)
 .vfp11_veneer  0x0000ab3c        0x0 /opt/cross/lib/gcc/arm-elf/4.2.1/../../../../arm-elf/lib/thumb/interwork/libg.a(lib_a-fwalk.o)
 .vfp11_veneer  0x0000ab3c        0x0 /opt/cross/lib/gcc/arm-elf/4.2.1/../../../../arm-elf/lib/thumb/interwork/libg.a(lib_a-reent.o)
 .vfp11_veneer  0x0000ab3c        0x0 /opt/cross/lib/gcc/arm-elf/4.2.1/../../../../arm-elf/lib/thumb/interwork/libg.a(lib_a-stdio.o)
 .vfp11_veneer  0x0000ab3c        0x0 /opt/cross/lib/gcc/arm-elf/4.2.1/../../../../arm-elf/lib/thumb/interwork/libg.a(lib_a-writer.o)
 .vfp11_veneer  0x0000ab3c        0x0 /opt/cross/lib/gcc/arm-elf/4.2.1/../../../../arm-elf/lib/thumb/interwork/libg.a(lib_a-closer.o)
 .vfp11_veneer  0x0000ab3c        0x0 /opt/cross/lib/gcc/arm-elf/4.2.1/../../../../arm-elf/lib/thumb/interwork/libg.a(lib_a-fclose.o)
 .vfp11_veneer  0x0000ab3c        0x0 /opt/cross/lib/gcc/arm-elf/4.2.1/../../../../arm-elf/lib/thumb/interwork/libg.a(lib_a-fflush.o)
 .vfp11_veneer  0x0000ab3c        0x0 /opt/cross/lib/gcc/arm-elf/4.2.1/../../../../arm-elf/lib/thumb/interwork/libg.a(lib_a-lseekr.o)
 .vfp11_veneer  0x0000ab3c        0x0 /opt/cross/lib/gcc/arm-elf/4.2.1/../../../../arm-elf/lib/thumb/interwork/libg.a(lib_a-readr.o)
 .vfp11_veneer  0x0000ab3c        0x0 /opt/cross/lib/gcc/arm-elf/4.2.1/thumb/interwork/libgcc.a(_umodsi3.o)
 .vfp11_veneer  0x0000ab3c        0x0 /opt/cross/lib/gcc/arm-elf/4.2.1/thumb/interwork/libgcc.a(_modsi3.o)
 .vfp11_veneer  0x0000ab3c        0x0 /opt/cross/lib/gcc/arm-elf/4.2.1/thumb/interwork/libgcc.a(_addsub_df.o)
 .vfp11_veneer  0x0000ab3c        0x0 /opt/cross/lib/gcc/arm-elf/4.2.1/thumb/interwork/libgcc.a(_mul_df.o)
 .vfp11_veneer  0x0000ab3c        0x0 /opt/cross/lib/gcc/arm-elf/4.2.1/thumb/interwork/libgcc.a(_div_df.o)
 .vfp11_veneer  0x0000ab3c        0x0 /opt/cross/lib/gcc/arm-elf/4.2.1/thumb/interwork/libgcc.a(_eq_df.o)
 .vfp11_veneer  0x0000ab3c        0x0 /opt/cross/lib/gcc/arm-elf/4.2.1/thumb/interwork/libgcc.a(_ne_df.o)
 .vfp11_veneer  0x0000ab3c        0x0 /opt/cross/lib/gcc/arm-elf/4.2.1/thumb/interwork/libgcc.a(_gt_df.o)
 .vfp11_veneer  0x0000ab3c        0x0 /opt/cross/lib/gcc/arm-elf/4.2.1/thumb/interwork/libgcc.a(_ge_df.o)
 .vfp11_veneer  0x0000ab3c        0x0 /opt/cross/lib/gcc/arm-elf/4.2.1/thumb/interwork/libgcc.a(_lt_df.o)
 .vfp11_veneer  0x0000ab3c        0x0 /opt/cross/lib/gcc/arm-elf/4.2.1/thumb/interwork/libgcc.a(_si_to_df.o)
 .vfp11_veneer  0x0000ab3c        0x0 /opt/cross/lib/gcc/arm-elf/4.2.1/thumb/interwork/libgcc.a(_df_to_si.o)
 .vfp11_veneer  0x0000ab3c        0x0 /opt/cross/lib/gcc/arm-elf/4.2.1/thumb/interwork/libgcc.a(_thenan_df.o)
 .vfp11_veneer  0x0000ab3c        0x0 /opt/cross/lib/gcc/arm-elf/4.2.1/thumb/interwork/libgcc.a(_usi_to_df.o)
 .vfp11_veneer  0x0000ab3c        0x0 /opt/cross/lib/gcc/arm-elf/4.2.1/thumb/interwork/libgcc.a(_muldi3.o)
 .vfp11_veneer  0x0000ab3c        0x0 /opt/cross/lib/gcc/arm-elf/4.2.1/thumb/interwork/libgcc.a(_clzsi2.o)
 .vfp11_veneer  0x0000ab3c        0x0 /opt/cross/lib/gcc/arm-elf/4.2.1/thumb/interwork/libgcc.a(_pack_df.o)
 .vfp11_veneer  0x0000ab3c        0x0 /opt/cross/lib/gcc/arm-elf/4.2.1/thumb/interwork/libgcc.a(_unpack_df.o)
 .vfp11_veneer  0x0000ab3c        0x0 /opt/cross/lib/gcc/arm-elf/4.2.1/thumb/interwork/libgcc.a(_fpcmp_parts_df.o)
 .vfp11_veneer  0x0000ab3c        0x0 /opt/cross/lib/gcc/arm-elf/4.2.1/thumb/interwork/libgcc.a(_clz.o)

.v4_bx          0x0000ab3c        0x0
 .v4_bx         0x0000ab3c        0x0 ../Common/drivers/LPC/peripherals/pwm.o
 .v4_bx         0x0000ab3c        0x0 ../Common/drivers/LPC/serial/serial.o
 .v4_bx         0x0000ab3c        0x0 ../Common/drivers/LPC/serial/serialISR.o
 .v4_bx         0x0000ab3c        0x0 ../Common/drivers/LPC/printf/uart0PutChar2.o
 .v4_bx         0x0000ab3c        0x0 ../Common/drivers/LPC/printf/printf2.o
 .v4_bx         0x0000ab3c        0x0 ../Common/drivers/LPC/printf/printfHelpers.o
 .v4_bx         0x0000ab3c        0x0 ../Common/drivers/LPC/i2c/i2c.o
 .v4_bx         0x0000ab3c        0x0 ../Source/portable/GCC/ARM7_LPC23xx/portISR.o
 .v4_bx         0x0000ab3c        0x0 main.o
 .v4_bx         0x0000ab3c        0x0 ../Common/Minimal/BlockQ.o
 .v4_bx         0x0000ab3c        0x0 ../Common/Minimal/blocktim.o
 .v4_bx         0x0000ab3c        0x0 ../Common/Minimal/integer.o
 .v4_bx         0x0000ab3c        0x0 ../Common/Minimal/GenQTest.o
 .v4_bx         0x0000ab3c        0x0 ../Common/Minimal/QPeek.o
 .v4_bx         0x0000ab3c        0x0 ../Common/Minimal/dynamic.o
 .v4_bx         0x0000ab3c        0x0 ../Source/list.o
 .v4_bx         0x0000ab3c        0x0 ../Source/queue.o
 .v4_bx         0x0000ab3c        0x0 ../Source/tasks.o
 .v4_bx         0x0000ab3c        0x0 ../Source/portable/GCC/ARM7_LPC23xx/port.o
 .v4_bx         0x0000ab3c        0x0 ../Source/portable/MemMang/heap_2.o
 .v4_bx         0x0000ab3c        0x0 /tmp/ccyCmckx.o
 .v4_bx         0x0000ab3c        0x0 /opt/cross/lib/gcc/arm-elf/4.2.1/thumb/interwork/libgcc.a(_udivsi3.o)
 .v4_bx         0x0000ab3c        0x0 /opt/cross/lib/gcc/arm-elf/4.2.1/thumb/interwork/libgcc.a(_divsi3.o)
 .v4_bx         0x0000ab3c        0x0 /opt/cross/lib/gcc/arm-elf/4.2.1/thumb/interwork/libgcc.a(_dvmd_tls.o)
 .v4_bx         0x0000ab3c        0x0 /opt/cross/lib/gcc/arm-elf/4.2.1/../../../../arm-elf/lib/thumb/interwork/libg.a(lib_a-memcpy.o)
 .v4_bx         0x0000ab3c        0x0 /opt/cross/lib/gcc/arm-elf/4.2.1/../../../../arm-elf/lib/thumb/interwork/libg.a(lib_a-memset.o)
 .v4_bx         0x0000ab3c        0x0 /opt/cross/lib/gcc/arm-elf/4.2.1/../../../../arm-elf/lib/thumb/interwork/libg.a(lib_a-sprintf.o)
 .v4_bx         0x0000ab3c        0x0 /opt/cross/lib/gcc/arm-elf/4.2.1/../../../../arm-elf/lib/thumb/interwork/libg.a(lib_a-strcat.o)
 .v4_bx         0x0000ab3c        0x0 /opt/cross/lib/gcc/arm-elf/4.2.1/../../../../arm-elf/lib/thumb/interwork/libg.a(lib_a-strcpy.o)
 .v4_bx         0x0000ab3c        0x0 /opt/cross/lib/gcc/arm-elf/4.2.1/../../../../arm-elf/lib/thumb/interwork/libg.a(lib_a-strlen.o)
 .v4_bx         0x0000ab3c        0x0 /opt/cross/lib/gcc/arm-elf/4.2.1/../../../../arm-elf/lib/thumb/interwork/libg.a(lib_a-strncpy.o)
 .v4_bx         0x0000ab3c        0x0 /opt/cross/lib/gcc/arm-elf/4.2.1/../../../../arm-elf/lib/thumb/interwork/libg.a(lib_a-svfprintf.o)
 .v4_bx         0x0000ab3c        0x0 /opt/cross/lib/gcc/arm-elf/4.2.1/../../../../arm-elf/lib/thumb/interwork/libg.a(lib_a-dtoa.o)
 .v4_bx         0x0000ab3c        0x0 /opt/cross/lib/gcc/arm-elf/4.2.1/../../../../arm-elf/lib/thumb/interwork/libg.a(lib_a-freer.o)
 .v4_bx         0x0000ab3c        0x0 /opt/cross/lib/gcc/arm-elf/4.2.1/../../../../arm-elf/lib/thumb/interwork/libg.a(lib_a-impure.o)
 .v4_bx         0x0000ab3c        0x0 /opt/cross/lib/gcc/arm-elf/4.2.1/../../../../arm-elf/lib/thumb/interwork/libg.a(lib_a-locale.o)
 .v4_bx         0x0000ab3c        0x0 /opt/cross/lib/gcc/arm-elf/4.2.1/../../../../arm-elf/lib/thumb/interwork/libg.a(lib_a-mallocr.o)
 .v4_bx         0x0000ab3c        0x0 /opt/cross/lib/gcc/arm-elf/4.2.1/../../../../arm-elf/lib/thumb/interwork/libg.a(lib_a-memchr.o)
 .v4_bx         0x0000ab3c        0x0 /opt/cross/lib/gcc/arm-elf/4.2.1/../../../../arm-elf/lib/thumb/interwork/libg.a(lib_a-memmove.o)
 .v4_bx         0x0000ab3c        0x0 /opt/cross/lib/gcc/arm-elf/4.2.1/../../../../arm-elf/lib/thumb/interwork/libg.a(lib_a-mlock.o)
 .v4_bx         0x0000ab3c        0x0 /opt/cross/lib/gcc/arm-elf/4.2.1/../../../../arm-elf/lib/thumb/interwork/libg.a(lib_a-mprec.o)
 .v4_bx         0x0000ab3c        0x0 /opt/cross/lib/gcc/arm-elf/4.2.1/../../../../arm-elf/lib/thumb/interwork/libg.a(lib_a-reallocr.o)
 .v4_bx         0x0000ab3c        0x0 /opt/cross/lib/gcc/arm-elf/4.2.1/../../../../arm-elf/lib/thumb/interwork/libg.a(lib_a-sbrkr.o)
 .v4_bx         0x0000ab3c        0x0 /opt/cross/lib/gcc/arm-elf/4.2.1/../../../../arm-elf/lib/thumb/interwork/libg.a(lib_a-s_isinfd.o)
 .v4_bx         0x0000ab3c        0x0 /opt/cross/lib/gcc/arm-elf/4.2.1/../../../../arm-elf/lib/thumb/interwork/libg.a(lib_a-s_isnand.o)
 .v4_bx         0x0000ab3c        0x0 /opt/cross/lib/gcc/arm-elf/4.2.1/../../../../arm-elf/lib/thumb/interwork/libg.a(lib_a-strcmp.o)
 .v4_bx         0x0000ab3c        0x0 /opt/cross/lib/gcc/arm-elf/4.2.1/../../../../arm-elf/lib/thumb/interwork/libg.a(lib_a-syscalls.o)
 .v4_bx         0x0000ab3c        0x0 /opt/cross/lib/gcc/arm-elf/4.2.1/../../../../arm-elf/lib/thumb/interwork/libg.a(lib_a-callocr.o)
 .v4_bx         0x0000ab3c        0x0 /opt/cross/lib/gcc/arm-elf/4.2.1/../../../../arm-elf/lib/thumb/interwork/libg.a(lib_a-errno.o)
 .v4_bx         0x0000ab3c        0x0 /opt/cross/lib/gcc/arm-elf/4.2.1/../../../../arm-elf/lib/thumb/interwork/libg.a(lib_a-findfp.o)
 .v4_bx         0x0000ab3c        0x0 /opt/cross/lib/gcc/arm-elf/4.2.1/../../../../arm-elf/lib/thumb/interwork/libg.a(lib_a-fwalk.o)
 .v4_bx         0x0000ab3c        0x0 /opt/cross/lib/gcc/arm-elf/4.2.1/../../../../arm-elf/lib/thumb/interwork/libg.a(lib_a-reent.o)
 .v4_bx         0x0000ab3c        0x0 /opt/cross/lib/gcc/arm-elf/4.2.1/../../../../arm-elf/lib/thumb/interwork/libg.a(lib_a-stdio.o)
 .v4_bx         0x0000ab3c        0x0 /opt/cross/lib/gcc/arm-elf/4.2.1/../../../../arm-elf/lib/thumb/interwork/libg.a(lib_a-writer.o)
 .v4_bx         0x0000ab3c        0x0 /opt/cross/lib/gcc/arm-elf/4.2.1/../../../../arm-elf/lib/thumb/interwork/libg.a(lib_a-closer.o)
 .v4_bx         0x0000ab3c        0x0 /opt/cross/lib/gcc/arm-elf/4.2.1/../../../../arm-elf/lib/thumb/interwork/libg.a(lib_a-fclose.o)
 .v4_bx         0x0000ab3c        0x0 /opt/cross/lib/gcc/arm-elf/4.2.1/../../../../arm-elf/lib/thumb/interwork/libg.a(lib_a-fflush.o)
 .v4_bx         0x0000ab3c        0x0 /opt/cross/lib/gcc/arm-elf/4.2.1/../../../../arm-elf/lib/thumb/interwork/libg.a(lib_a-lseekr.o)
 .v4_bx         0x0000ab3c        0x0 /opt/cross/lib/gcc/arm-elf/4.2.1/../../../../arm-elf/lib/thumb/interwork/libg.a(lib_a-readr.o)
 .v4_bx         0x0000ab3c        0x0 /opt/cross/lib/gcc/arm-elf/4.2.1/thumb/interwork/libgcc.a(_umodsi3.o)
 .v4_bx         0x0000ab3c        0x0 /opt/cross/lib/gcc/arm-elf/4.2.1/thumb/interwork/libgcc.a(_modsi3.o)
 .v4_bx         0x0000ab3c        0x0 /opt/cross/lib/gcc/arm-elf/4.2.1/thumb/interwork/libgcc.a(_addsub_df.o)
 .v4_bx         0x0000ab3c        0x0 /opt/cross/lib/gcc/arm-elf/4.2.1/thumb/interwork/libgcc.a(_mul_df.o)
 .v4_bx         0x0000ab3c        0x0 /opt/cross/lib/gcc/arm-elf/4.2.1/thumb/interwork/libgcc.a(_div_df.o)
 .v4_bx         0x0000ab3c        0x0 /opt/cross/lib/gcc/arm-elf/4.2.1/thumb/interwork/libgcc.a(_eq_df.o)
 .v4_bx         0x0000ab3c        0x0 /opt/cross/lib/gcc/arm-elf/4.2.1/thumb/interwork/libgcc.a(_ne_df.o)
 .v4_bx         0x0000ab3c        0x0 /opt/cross/lib/gcc/arm-elf/4.2.1/thumb/interwork/libgcc.a(_gt_df.o)
 .v4_bx         0x0000ab3c        0x0 /opt/cross/lib/gcc/arm-elf/4.2.1/thumb/interwork/libgcc.a(_ge_df.o)
 .v4_bx         0x0000ab3c        0x0 /opt/cross/lib/gcc/arm-elf/4.2.1/thumb/interwork/libgcc.a(_lt_df.o)
 .v4_bx         0x0000ab3c        0x0 /opt/cross/lib/gcc/arm-elf/4.2.1/thumb/interwork/libgcc.a(_si_to_df.o)
 .v4_bx         0x0000ab3c        0x0 /opt/cross/lib/gcc/arm-elf/4.2.1/thumb/interwork/libgcc.a(_df_to_si.o)
 .v4_bx         0x0000ab3c        0x0 /opt/cross/lib/gcc/arm-elf/4.2.1/thumb/interwork/libgcc.a(_thenan_df.o)
 .v4_bx         0x0000ab3c        0x0 /opt/cross/lib/gcc/arm-elf/4.2.1/thumb/interwork/libgcc.a(_usi_to_df.o)
 .v4_bx         0x0000ab3c        0x0 /opt/cross/lib/gcc/arm-elf/4.2.1/thumb/interwork/libgcc.a(_muldi3.o)
 .v4_bx         0x0000ab3c        0x0 /opt/cross/lib/gcc/arm-elf/4.2.1/thumb/interwork/libgcc.a(_clzsi2.o)
 .v4_bx         0x0000ab3c        0x0 /opt/cross/lib/gcc/arm-elf/4.2.1/thumb/interwork/libgcc.a(_pack_df.o)
 .v4_bx         0x0000ab3c        0x0 /opt/cross/lib/gcc/arm-elf/4.2.1/thumb/interwork/libgcc.a(_unpack_df.o)
 .v4_bx         0x0000ab3c        0x0 /opt/cross/lib/gcc/arm-elf/4.2.1/thumb/interwork/libgcc.a(_fpcmp_parts_df.o)
 .v4_bx         0x0000ab3c        0x0 /opt/cross/lib/gcc/arm-elf/4.2.1/thumb/interwork/libgcc.a(_clz.o)

.data           0x40000000      0x858 load address 0x0000ab3c
                0x40000000                __data_beg__ = .
                0x0000ab3c                __data_beg_src__ = __end_of_text__
 *(.data)
 .data          0x40000000        0x0 ../Common/drivers/LPC/peripherals/pwm.o
 .data          0x40000000        0x0 ../Common/drivers/LPC/serial/serial.o
 .data          0x40000000        0x0 ../Common/drivers/LPC/serial/serialISR.o
 .data          0x40000000        0x0 ../Common/drivers/LPC/printf/uart0PutChar2.o
 .data          0x40000000        0x0 ../Common/drivers/LPC/printf/printf2.o
 .data          0x40000000        0x0 ../Common/drivers/LPC/printf/printfHelpers.o
 .data          0x40000000        0x0 ../Common/drivers/LPC/i2c/i2c.o
 .data          0x40000000        0x4 ../Source/portable/GCC/ARM7_LPC23xx/portISR.o
                0x40000000                ulCriticalNesting
 .data          0x40000004        0x8 main.o
 .data          0x4000000c        0x0 ../Common/Minimal/BlockQ.o
 .data          0x4000000c        0x0 ../Common/Minimal/blocktim.o
 .data          0x4000000c        0x0 ../Common/Minimal/integer.o
 .data          0x4000000c        0x0 ../Common/Minimal/GenQTest.o
 .data          0x4000000c        0x0 ../Common/Minimal/QPeek.o
 .data          0x4000000c        0x0 ../Common/Minimal/dynamic.o
 .data          0x4000000c        0x0 ../Source/list.o
 .data          0x4000000c        0x0 ../Source/queue.o
 .data          0x4000000c        0x4 ../Source/tasks.o
 .data          0x40000010        0x0 ../Source/portable/GCC/ARM7_LPC23xx/port.o
 .data          0x40000010        0x0 ../Source/portable/MemMang/heap_2.o
 .data          0x40000010        0x0 /tmp/ccyCmckx.o
 .data          0x40000010        0x0 /opt/cross/lib/gcc/arm-elf/4.2.1/thumb/interwork/libgcc.a(_udivsi3.o)
 .data          0x40000010        0x0 /opt/cross/lib/gcc/arm-elf/4.2.1/thumb/interwork/libgcc.a(_divsi3.o)
 .data          0x40000010        0x0 /opt/cross/lib/gcc/arm-elf/4.2.1/thumb/interwork/libgcc.a(_dvmd_tls.o)
 .data          0x40000010        0x0 /opt/cross/lib/gcc/arm-elf/4.2.1/../../../../arm-elf/lib/thumb/interwork/libg.a(lib_a-memcpy.o)
 .data          0x40000010        0x0 /opt/cross/lib/gcc/arm-elf/4.2.1/../../../../arm-elf/lib/thumb/interwork/libg.a(lib_a-memset.o)
 .data          0x40000010        0x0 /opt/cross/lib/gcc/arm-elf/4.2.1/../../../../arm-elf/lib/thumb/interwork/libg.a(lib_a-sprintf.o)
 .data          0x40000010        0x0 /opt/cross/lib/gcc/arm-elf/4.2.1/../../../../arm-elf/lib/thumb/interwork/libg.a(lib_a-strcat.o)
 .data          0x40000010        0x0 /opt/cross/lib/gcc/arm-elf/4.2.1/../../../../arm-elf/lib/thumb/interwork/libg.a(lib_a-strcpy.o)
 .data          0x40000010        0x0 /opt/cross/lib/gcc/arm-elf/4.2.1/../../../../arm-elf/lib/thumb/interwork/libg.a(lib_a-strlen.o)
 .data          0x40000010        0x0 /opt/cross/lib/gcc/arm-elf/4.2.1/../../../../arm-elf/lib/thumb/interwork/libg.a(lib_a-strncpy.o)
 .data          0x40000010        0x0 /opt/cross/lib/gcc/arm-elf/4.2.1/../../../../arm-elf/lib/thumb/interwork/libg.a(lib_a-svfprintf.o)
 .data          0x40000010        0x0 /opt/cross/lib/gcc/arm-elf/4.2.1/../../../../arm-elf/lib/thumb/interwork/libg.a(lib_a-dtoa.o)
 .data          0x40000010        0x0 /opt/cross/lib/gcc/arm-elf/4.2.1/../../../../arm-elf/lib/thumb/interwork/libg.a(lib_a-freer.o)
 .data          0x40000010      0x428 /opt/cross/lib/gcc/arm-elf/4.2.1/../../../../arm-elf/lib/thumb/interwork/libg.a(lib_a-impure.o)
                0x40000010                _impure_ptr
 .data          0x40000438       0x10 /opt/cross/lib/gcc/arm-elf/4.2.1/../../../../arm-elf/lib/thumb/interwork/libg.a(lib_a-locale.o)
                0x40000438                __mb_cur_max
                0x4000043c                __lc_ctype
 .data          0x40000448      0x410 /opt/cross/lib/gcc/arm-elf/4.2.1/../../../../arm-elf/lib/thumb/interwork/libg.a(lib_a-mallocr.o)
                0x40000854                __malloc_sbrk_base
                0x40000448                __malloc_av_
                0x40000850                __malloc_trim_threshold
 .data          0x40000858        0x0 /opt/cross/lib/gcc/arm-elf/4.2.1/../../../../arm-elf/lib/thumb/interwork/libg.a(lib_a-memchr.o)
 .data          0x40000858        0x0 /opt/cross/lib/gcc/arm-elf/4.2.1/../../../../arm-elf/lib/thumb/interwork/libg.a(lib_a-memmove.o)
 .data          0x40000858        0x0 /opt/cross/lib/gcc/arm-elf/4.2.1/../../../../arm-elf/lib/thumb/interwork/libg.a(lib_a-mlock.o)
 .data          0x40000858        0x0 /opt/cross/lib/gcc/arm-elf/4.2.1/../../../../arm-elf/lib/thumb/interwork/libg.a(lib_a-mprec.o)
 .data          0x40000858        0x0 /opt/cross/lib/gcc/arm-elf/4.2.1/../../../../arm-elf/lib/thumb/interwork/libg.a(lib_a-reallocr.o)
 .data          0x40000858        0x0 /opt/cross/lib/gcc/arm-elf/4.2.1/../../../../arm-elf/lib/thumb/interwork/libg.a(lib_a-sbrkr.o)
 .data          0x40000858        0x0 /opt/cross/lib/gcc/arm-elf/4.2.1/../../../../arm-elf/lib/thumb/interwork/libg.a(lib_a-s_isinfd.o)
 .data          0x40000858        0x0 /opt/cross/lib/gcc/arm-elf/4.2.1/../../../../arm-elf/lib/thumb/interwork/libg.a(lib_a-s_isnand.o)
 .data          0x40000858        0x0 /opt/cross/lib/gcc/arm-elf/4.2.1/../../../../arm-elf/lib/thumb/interwork/libg.a(lib_a-strcmp.o)
 .data          0x40000858        0x0 /opt/cross/lib/gcc/arm-elf/4.2.1/../../../../arm-elf/lib/thumb/interwork/libg.a(lib_a-syscalls.o)
 .data          0x40000858        0x0 /opt/cross/lib/gcc/arm-elf/4.2.1/../../../../arm-elf/lib/thumb/interwork/libg.a(lib_a-callocr.o)
 .data          0x40000858        0x0 /opt/cross/lib/gcc/arm-elf/4.2.1/../../../../arm-elf/lib/thumb/interwork/libg.a(lib_a-errno.o)
 .data          0x40000858        0x0 /opt/cross/lib/gcc/arm-elf/4.2.1/../../../../arm-elf/lib/thumb/interwork/libg.a(lib_a-findfp.o)
 .data          0x40000858        0x0 /opt/cross/lib/gcc/arm-elf/4.2.1/../../../../arm-elf/lib/thumb/interwork/libg.a(lib_a-fwalk.o)
 .data          0x40000858        0x0 /opt/cross/lib/gcc/arm-elf/4.2.1/../../../../arm-elf/lib/thumb/interwork/libg.a(lib_a-reent.o)
 .data          0x40000858        0x0 /opt/cross/lib/gcc/arm-elf/4.2.1/../../../../arm-elf/lib/thumb/interwork/libg.a(lib_a-stdio.o)
 .data          0x40000858        0x0 /opt/cross/lib/gcc/arm-elf/4.2.1/../../../../arm-elf/lib/thumb/interwork/libg.a(lib_a-writer.o)
 .data          0x40000858        0x0 /opt/cross/lib/gcc/arm-elf/4.2.1/../../../../arm-elf/lib/thumb/interwork/libg.a(lib_a-closer.o)
 .data          0x40000858        0x0 /opt/cross/lib/gcc/arm-elf/4.2.1/../../../../arm-elf/lib/thumb/interwork/libg.a(lib_a-fclose.o)
 .data          0x40000858        0x0 /opt/cross/lib/gcc/arm-elf/4.2.1/../../../../arm-elf/lib/thumb/interwork/libg.a(lib_a-fflush.o)
 .data          0x40000858        0x0 /opt/cross/lib/gcc/arm-elf/4.2.1/../../../../arm-elf/lib/thumb/interwork/libg.a(lib_a-lseekr.o)
 .data          0x40000858        0x0 /opt/cross/lib/gcc/arm-elf/4.2.1/../../../../arm-elf/lib/thumb/interwork/libg.a(lib_a-readr.o)
 .data          0x40000858        0x0 /opt/cross/lib/gcc/arm-elf/4.2.1/thumb/interwork/libgcc.a(_umodsi3.o)
 .data          0x40000858        0x0 /opt/cross/lib/gcc/arm-elf/4.2.1/thumb/interwork/libgcc.a(_modsi3.o)
 .data          0x40000858        0x0 /opt/cross/lib/gcc/arm-elf/4.2.1/thumb/interwork/libgcc.a(_addsub_df.o)
 .data          0x40000858        0x0 /opt/cross/lib/gcc/arm-elf/4.2.1/thumb/interwork/libgcc.a(_mul_df.o)
 .data          0x40000858        0x0 /opt/cross/lib/gcc/arm-elf/4.2.1/thumb/interwork/libgcc.a(_div_df.o)
 .data          0x40000858        0x0 /opt/cross/lib/gcc/arm-elf/4.2.1/thumb/interwork/libgcc.a(_eq_df.o)
 .data          0x40000858        0x0 /opt/cross/lib/gcc/arm-elf/4.2.1/thumb/interwork/libgcc.a(_ne_df.o)
 .data          0x40000858        0x0 /opt/cross/lib/gcc/arm-elf/4.2.1/thumb/interwork/libgcc.a(_gt_df.o)
 .data          0x40000858        0x0 /opt/cross/lib/gcc/arm-elf/4.2.1/thumb/interwork/libgcc.a(_ge_df.o)
 .data          0x40000858        0x0 /opt/cross/lib/gcc/arm-elf/4.2.1/thumb/interwork/libgcc.a(_lt_df.o)
 .data          0x40000858        0x0 /opt/cross/lib/gcc/arm-elf/4.2.1/thumb/interwork/libgcc.a(_si_to_df.o)
 .data          0x40000858        0x0 /opt/cross/lib/gcc/arm-elf/4.2.1/thumb/interwork/libgcc.a(_df_to_si.o)
 .data          0x40000858        0x0 /opt/cross/lib/gcc/arm-elf/4.2.1/thumb/interwork/libgcc.a(_thenan_df.o)
 .data          0x40000858        0x0 /opt/cross/lib/gcc/arm-elf/4.2.1/thumb/interwork/libgcc.a(_usi_to_df.o)
 .data          0x40000858        0x0 /opt/cross/lib/gcc/arm-elf/4.2.1/thumb/interwork/libgcc.a(_muldi3.o)
 .data          0x40000858        0x0 /opt/cross/lib/gcc/arm-elf/4.2.1/thumb/interwork/libgcc.a(_clzsi2.o)
 .data          0x40000858        0x0 /opt/cross/lib/gcc/arm-elf/4.2.1/thumb/interwork/libgcc.a(_pack_df.o)
 .data          0x40000858        0x0 /opt/cross/lib/gcc/arm-elf/4.2.1/thumb/interwork/libgcc.a(_unpack_df.o)
 .data          0x40000858        0x0 /opt/cross/lib/gcc/arm-elf/4.2.1/thumb/interwork/libgcc.a(_fpcmp_parts_df.o)
 .data          0x40000858        0x0 /opt/cross/lib/gcc/arm-elf/4.2.1/thumb/interwork/libgcc.a(_clz.o)
                0x40000858                __data_end__ = .

.bss            0x40000858     0x4cf8
                0x40000858                __bss_beg__ = .
 *(.bss)
 .bss           0x40000858        0x0 ../Common/drivers/LPC/peripherals/pwm.o
 .bss           0x40000858       0x18 ../Common/drivers/LPC/serial/serial.o
 .bss           0x40000870       0x18 ../Common/drivers/LPC/serial/serialISR.o
 .bss           0x40000888        0x0 ../Common/drivers/LPC/printf/uart0PutChar2.o
 .bss           0x40000888        0x0 ../Common/drivers/LPC/printf/printf2.o
 .bss           0x40000888        0x0 ../Common/drivers/LPC/printf/printfHelpers.o
 .bss           0x40000888       0x24 ../Common/drivers/LPC/i2c/i2c.o
                0x4000089c                I2C1DataLength
                0x400008a8                I2C2DataLength
                0x40000894                I2C1ExtSlaveAddress
                0x40000898                I2C1DataCounter
                0x400008a0                I2C2ExtSlaveAddress
                0x40000888                I2C0ExtSlaveAddress
                0x40000890                I2C0DataLength
                0x4000088c                I2C0DataCounter
                0x400008a4                I2C2DataCounter
 .bss           0x400008ac        0x0 ../Source/portable/GCC/ARM7_LPC23xx/portISR.o
 .bss           0x400008ac        0x8 main.o
 .bss           0x400008b4       0x18 ../Common/Minimal/BlockQ.o
 .bss           0x400008cc       0x20 ../Common/Minimal/blocktim.o
 .bss           0x400008ec        0x4 ../Common/Minimal/integer.o
 .bss           0x400008f0       0x20 ../Common/Minimal/GenQTest.o
 .bss           0x40000910        0xc ../Common/Minimal/QPeek.o
 .bss           0x4000091c       0x28 ../Common/Minimal/dynamic.o
 .bss           0x40000944        0x0 ../Source/list.o
 .bss           0x40000944        0x0 ../Source/queue.o
 .bss           0x40000944      0x130 ../Source/tasks.o
                0x40000944                pxCurrentTCB
 .bss           0x40000a74        0x0 ../Source/portable/GCC/ARM7_LPC23xx/port.o
 .bss           0x40000a74     0x4818 ../Source/portable/MemMang/heap_2.o
 .bss           0x4000528c        0x0 /tmp/ccyCmckx.o
 .bss           0x4000528c        0x0 /opt/cross/lib/gcc/arm-elf/4.2.1/thumb/interwork/libgcc.a(_udivsi3.o)
 .bss           0x4000528c        0x0 /opt/cross/lib/gcc/arm-elf/4.2.1/thumb/interwork/libgcc.a(_divsi3.o)
 .bss           0x4000528c        0x0 /opt/cross/lib/gcc/arm-elf/4.2.1/thumb/interwork/libgcc.a(_dvmd_tls.o)
 .bss           0x4000528c        0x0 /opt/cross/lib/gcc/arm-elf/4.2.1/../../../../arm-elf/lib/thumb/interwork/libg.a(lib_a-memcpy.o)
 .bss           0x4000528c        0x0 /opt/cross/lib/gcc/arm-elf/4.2.1/../../../../arm-elf/lib/thumb/interwork/libg.a(lib_a-memset.o)
 .bss           0x4000528c        0x0 /opt/cross/lib/gcc/arm-elf/4.2.1/../../../../arm-elf/lib/thumb/interwork/libg.a(lib_a-sprintf.o)
 .bss           0x4000528c        0x0 /opt/cross/lib/gcc/arm-elf/4.2.1/../../../../arm-elf/lib/thumb/interwork/libg.a(lib_a-strcat.o)
 .bss           0x4000528c        0x0 /opt/cross/lib/gcc/arm-elf/4.2.1/../../../../arm-elf/lib/thumb/interwork/libg.a(lib_a-strcpy.o)
 .bss           0x4000528c        0x0 /opt/cross/lib/gcc/arm-elf/4.2.1/../../../../arm-elf/lib/thumb/interwork/libg.a(lib_a-strlen.o)
 .bss           0x4000528c        0x0 /opt/cross/lib/gcc/arm-elf/4.2.1/../../../../arm-elf/lib/thumb/interwork/libg.a(lib_a-strncpy.o)
 .bss           0x4000528c        0x0 /opt/cross/lib/gcc/arm-elf/4.2.1/../../../../arm-elf/lib/thumb/interwork/libg.a(lib_a-svfprintf.o)
 .bss           0x4000528c        0x0 /opt/cross/lib/gcc/arm-elf/4.2.1/../../../../arm-elf/lib/thumb/interwork/libg.a(lib_a-dtoa.o)
 .bss           0x4000528c        0x0 /opt/cross/lib/gcc/arm-elf/4.2.1/../../../../arm-elf/lib/thumb/interwork/libg.a(lib_a-freer.o)
 .bss           0x4000528c        0x0 /opt/cross/lib/gcc/arm-elf/4.2.1/../../../../arm-elf/lib/thumb/interwork/libg.a(lib_a-impure.o)
 .bss           0x4000528c        0xc /opt/cross/lib/gcc/arm-elf/4.2.1/../../../../arm-elf/lib/thumb/interwork/libg.a(lib_a-locale.o)
                0x4000528c                __nlocale_changed
                0x40005290                __mlocale_changed
                0x40005294                _PathLocale
 .bss           0x40005298       0x34 /opt/cross/lib/gcc/arm-elf/4.2.1/../../../../arm-elf/lib/thumb/interwork/libg.a(lib_a-mallocr.o)
                0x40005298                __malloc_top_pad
                0x4000529c                __malloc_max_sbrked_mem
                0x400052a4                __malloc_current_mallinfo
                0x400052a0                __malloc_max_total_mem
 .bss           0x400052cc        0x0 /opt/cross/lib/gcc/arm-elf/4.2.1/../../../../arm-elf/lib/thumb/interwork/libg.a(lib_a-memchr.o)
 .bss           0x400052cc        0x0 /opt/cross/lib/gcc/arm-elf/4.2.1/../../../../arm-elf/lib/thumb/interwork/libg.a(lib_a-memmove.o)
 .bss           0x400052cc        0x0 /opt/cross/lib/gcc/arm-elf/4.2.1/../../../../arm-elf/lib/thumb/interwork/libg.a(lib_a-mlock.o)
 .bss           0x400052cc        0x0 /opt/cross/lib/gcc/arm-elf/4.2.1/../../../../arm-elf/lib/thumb/interwork/libg.a(lib_a-mprec.o)
 .bss           0x400052cc        0x0 /opt/cross/lib/gcc/arm-elf/4.2.1/../../../../arm-elf/lib/thumb/interwork/libg.a(lib_a-reallocr.o)
 .bss           0x400052cc        0x0 /opt/cross/lib/gcc/arm-elf/4.2.1/../../../../arm-elf/lib/thumb/interwork/libg.a(lib_a-sbrkr.o)
 .bss           0x400052cc        0x0 /opt/cross/lib/gcc/arm-elf/4.2.1/../../../../arm-elf/lib/thumb/interwork/libg.a(lib_a-s_isinfd.o)
 .bss           0x400052cc        0x0 /opt/cross/lib/gcc/arm-elf/4.2.1/../../../../arm-elf/lib/thumb/interwork/libg.a(lib_a-s_isnand.o)
 .bss           0x400052cc        0x0 /opt/cross/lib/gcc/arm-elf/4.2.1/../../../../arm-elf/lib/thumb/interwork/libg.a(lib_a-strcmp.o)
 .bss           0x400052cc       0xb0 /opt/cross/lib/gcc/arm-elf/4.2.1/../../../../arm-elf/lib/thumb/interwork/libg.a(lib_a-syscalls.o)
 .bss           0x4000537c        0x0 /opt/cross/lib/gcc/arm-elf/4.2.1/../../../../arm-elf/lib/thumb/interwork/libg.a(lib_a-callocr.o)
 .bss           0x4000537c        0x0 /opt/cross/lib/gcc/arm-elf/4.2.1/../../../../arm-elf/lib/thumb/interwork/libg.a(lib_a-errno.o)
 .bss           0x4000537c        0x0 /opt/cross/lib/gcc/arm-elf/4.2.1/../../../../arm-elf/lib/thumb/interwork/libg.a(lib_a-findfp.o)
 .bss           0x4000537c        0x0 /opt/cross/lib/gcc/arm-elf/4.2.1/../../../../arm-elf/lib/thumb/interwork/libg.a(lib_a-fwalk.o)
 .bss           0x4000537c        0x0 /opt/cross/lib/gcc/arm-elf/4.2.1/../../../../arm-elf/lib/thumb/interwork/libg.a(lib_a-reent.o)
 .bss           0x4000537c        0x0 /opt/cross/lib/gcc/arm-elf/4.2.1/../../../../arm-elf/lib/thumb/interwork/libg.a(lib_a-stdio.o)
 .bss           0x4000537c        0x0 /opt/cross/lib/gcc/arm-elf/4.2.1/../../../../arm-elf/lib/thumb/interwork/libg.a(lib_a-writer.o)
 .bss           0x4000537c        0x0 /opt/cross/lib/gcc/arm-elf/4.2.1/../../../../arm-elf/lib/thumb/interwork/libg.a(lib_a-closer.o)
 .bss           0x4000537c        0x0 /opt/cross/lib/gcc/arm-elf/4.2.1/../../../../arm-elf/lib/thumb/interwork/libg.a(lib_a-fclose.o)
 .bss           0x4000537c        0x0 /opt/cross/lib/gcc/arm-elf/4.2.1/../../../../arm-elf/lib/thumb/interwork/libg.a(lib_a-fflush.o)
 .bss           0x4000537c        0x0 /opt/cross/lib/gcc/arm-elf/4.2.1/../../../../arm-elf/lib/thumb/interwork/libg.a(lib_a-lseekr.o)
 .bss           0x4000537c        0x0 /opt/cross/lib/gcc/arm-elf/4.2.1/../../../../arm-elf/lib/thumb/interwork/libg.a(lib_a-readr.o)
 .bss           0x4000537c        0x0 /opt/cross/lib/gcc/arm-elf/4.2.1/thumb/interwork/libgcc.a(_umodsi3.o)
 .bss           0x4000537c        0x0 /opt/cross/lib/gcc/arm-elf/4.2.1/thumb/interwork/libgcc.a(_modsi3.o)
 .bss           0x4000537c        0x0 /opt/cross/lib/gcc/arm-elf/4.2.1/thumb/interwork/libgcc.a(_addsub_df.o)
 .bss           0x4000537c        0x0 /opt/cross/lib/gcc/arm-elf/4.2.1/thumb/interwork/libgcc.a(_mul_df.o)
 .bss           0x4000537c        0x0 /opt/cross/lib/gcc/arm-elf/4.2.1/thumb/interwork/libgcc.a(_div_df.o)
 .bss           0x4000537c        0x0 /opt/cross/lib/gcc/arm-elf/4.2.1/thumb/interwork/libgcc.a(_eq_df.o)
 .bss           0x4000537c        0x0 /opt/cross/lib/gcc/arm-elf/4.2.1/thumb/interwork/libgcc.a(_ne_df.o)
 .bss           0x4000537c        0x0 /opt/cross/lib/gcc/arm-elf/4.2.1/thumb/interwork/libgcc.a(_gt_df.o)
 .bss           0x4000537c        0x0 /opt/cross/lib/gcc/arm-elf/4.2.1/thumb/interwork/libgcc.a(_ge_df.o)
 .bss           0x4000537c        0x0 /opt/cross/lib/gcc/arm-elf/4.2.1/thumb/interwork/libgcc.a(_lt_df.o)
 .bss           0x4000537c        0x0 /opt/cross/lib/gcc/arm-elf/4.2.1/thumb/interwork/libgcc.a(_si_to_df.o)
 .bss           0x4000537c        0x0 /opt/cross/lib/gcc/arm-elf/4.2.1/thumb/interwork/libgcc.a(_df_to_si.o)
 .bss           0x4000537c        0x0 /opt/cross/lib/gcc/arm-elf/4.2.1/thumb/interwork/libgcc.a(_thenan_df.o)
 .bss           0x4000537c        0x0 /opt/cross/lib/gcc/arm-elf/4.2.1/thumb/interwork/libgcc.a(_usi_to_df.o)
 .bss           0x4000537c        0x0 /opt/cross/lib/gcc/arm-elf/4.2.1/thumb/interwork/libgcc.a(_muldi3.o)
 .bss           0x4000537c        0x0 /opt/cross/lib/gcc/arm-elf/4.2.1/thumb/interwork/libgcc.a(_clzsi2.o)
 .bss           0x4000537c        0x0 /opt/cross/lib/gcc/arm-elf/4.2.1/thumb/interwork/libgcc.a(_pack_df.o)
 .bss           0x4000537c        0x0 /opt/cross/lib/gcc/arm-elf/4.2.1/thumb/interwork/libgcc.a(_unpack_df.o)
 .bss           0x4000537c        0x0 /opt/cross/lib/gcc/arm-elf/4.2.1/thumb/interwork/libgcc.a(_fpcmp_parts_df.o)
 .bss           0x4000537c        0x0 /opt/cross/lib/gcc/arm-elf/4.2.1/thumb/interwork/libgcc.a(_clz.o)
 COMMON         0x4000537c       0x40 ../Common/drivers/LPC/printf/printfHelpers.o
                0x4000537c                buffer
 COMMON         0x400053bc      0x180 ../Common/drivers/LPC/i2c/i2c.o
                0x400053bc                I2C1ReceiveData
                0x400053fc                I2C0ReceiveData
                0x4000543c                I2C2TransmitData
                0x4000547c                I2C0TransmitData
                0x400054bc                I2C1TransmitData
                0x400054fc                I2C2ReceiveData
 COMMON         0x4000553c        0xc ../Common/Minimal/QPeek.o
                0x4000553c                xHighPriorityTask
                0x40005540                xMediumPriorityTask
                0x40005544                xHighestPriorityTask
 COMMON         0x40005548        0x4 ../Common/Minimal/dynamic.o
                0x40005548                xSuspendedTestQueue
 COMMON         0x4000554c        0x4 /opt/cross/lib/gcc/arm-elf/4.2.1/../../../../arm-elf/lib/thumb/interwork/libg.a(lib_a-reent.o)
                0x4000554c                errno
                0x40005550                . = ALIGN (0x4)
                0x40005550                _bss_end__ = .
                0x40005550                __bss_end__ = .
                0x40005550                __end__ = .

.usbram         0x7fd00000        0x0
                0x7fd00000                __usbram_beg__ = .
 *(.dmaram)
                0x7fd00000                __usbram_end__ = .

.ethram         0x7fe00000        0x0
                0x7fe00000                __ethram_beg__ = .
 *(.ethram)
                0x7fe00000                __ethram_end__ = .
                0x7fe00000                . = ALIGN (0x4)
                0x7fe00000                _end = .
                0x7fe00000                PROVIDE (end, .)
OUTPUT(i2cTesting.elf elf32-littlearm)

.debug_abbrev   0x00000000     0x6295
 .debug_abbrev  0x00000000       0xe7 ../Common/drivers/LPC/peripherals/pwm.o
 .debug_abbrev  0x000000e7       0xe6 ../Common/drivers/LPC/serial/serial.o
 .debug_abbrev  0x000001cd       0xe4 ../Common/drivers/LPC/serial/serialISR.o
 .debug_abbrev  0x000002b1       0x7f ../Common/drivers/LPC/printf/uart0PutChar2.o
 .debug_abbrev  0x00000330      0x137 ../Common/drivers/LPC/printf/printf2.o
 .debug_abbrev  0x00000467      0x159 ../Common/drivers/LPC/printf/printfHelpers.o
 .debug_abbrev  0x000005c0      0x10e ../Common/drivers/LPC/i2c/i2c.o
 .debug_abbrev  0x000006ce       0x7f ../Source/portable/GCC/ARM7_LPC23xx/portISR.o
 .debug_abbrev  0x0000074d      0x19b main.o
 .debug_abbrev  0x000008e8      0x12b ../Common/Minimal/BlockQ.o
 .debug_abbrev  0x00000a13      0x100 ../Common/Minimal/blocktim.o
 .debug_abbrev  0x00000b13       0xcc ../Common/Minimal/integer.o
 .debug_abbrev  0x00000bdf      0x10d ../Common/Minimal/GenQTest.o
 .debug_abbrev  0x00000cec      0x12d ../Common/Minimal/QPeek.o
 .debug_abbrev  0x00000e19      0x11a ../Common/Minimal/dynamic.o
 .debug_abbrev  0x00000f33       0xfd ../Source/list.o
 .debug_abbrev  0x00001030      0x1aa ../Source/queue.o
 .debug_abbrev  0x000011da      0x237 ../Source/tasks.o
 .debug_abbrev  0x00001411       0xf1 ../Source/portable/GCC/ARM7_LPC23xx/port.o
 .debug_abbrev  0x00001502      0x13f ../Source/portable/MemMang/heap_2.o
 .debug_abbrev  0x00001641       0x12 /tmp/ccyCmckx.o
 .debug_abbrev  0x00001653       0x14 /opt/cross/lib/gcc/arm-elf/4.2.1/thumb/interwork/libgcc.a(_udivsi3.o)
 .debug_abbrev  0x00001667       0x14 /opt/cross/lib/gcc/arm-elf/4.2.1/thumb/interwork/libgcc.a(_divsi3.o)
 .debug_abbrev  0x0000167b       0x14 /opt/cross/lib/gcc/arm-elf/4.2.1/thumb/interwork/libgcc.a(_dvmd_tls.o)
 .debug_abbrev  0x0000168f       0xaf /opt/cross/lib/gcc/arm-elf/4.2.1/../../../../arm-elf/lib/thumb/interwork/libg.a(lib_a-memcpy.o)
 .debug_abbrev  0x0000173e       0xa1 /opt/cross/lib/gcc/arm-elf/4.2.1/../../../../arm-elf/lib/thumb/interwork/libg.a(lib_a-memset.o)
 .debug_abbrev  0x000017df      0x194 /opt/cross/lib/gcc/arm-elf/4.2.1/../../../../arm-elf/lib/thumb/interwork/libg.a(lib_a-sprintf.o)
 .debug_abbrev  0x00001973       0x8e /opt/cross/lib/gcc/arm-elf/4.2.1/../../../../arm-elf/lib/thumb/interwork/libg.a(lib_a-strcat.o)
 .debug_abbrev  0x00001a01       0x87 /opt/cross/lib/gcc/arm-elf/4.2.1/../../../../arm-elf/lib/thumb/interwork/libg.a(lib_a-strcpy.o)
 .debug_abbrev  0x00001a88       0x92 /opt/cross/lib/gcc/arm-elf/4.2.1/../../../../arm-elf/lib/thumb/interwork/libg.a(lib_a-strlen.o)
 .debug_abbrev  0x00001b1a       0x94 /opt/cross/lib/gcc/arm-elf/4.2.1/../../../../arm-elf/lib/thumb/interwork/libg.a(lib_a-strncpy.o)
 .debug_abbrev  0x00001bae      0x314 /opt/cross/lib/gcc/arm-elf/4.2.1/../../../../arm-elf/lib/thumb/interwork/libg.a(lib_a-svfprintf.o)
 .debug_abbrev  0x00001ec2      0x22a /opt/cross/lib/gcc/arm-elf/4.2.1/../../../../arm-elf/lib/thumb/interwork/libg.a(lib_a-dtoa.o)
 .debug_abbrev  0x000020ec      0x1e0 /opt/cross/lib/gcc/arm-elf/4.2.1/../../../../arm-elf/lib/thumb/interwork/libg.a(lib_a-freer.o)
 .debug_abbrev  0x000022cc      0x15e /opt/cross/lib/gcc/arm-elf/4.2.1/../../../../arm-elf/lib/thumb/interwork/libg.a(lib_a-impure.o)
 .debug_abbrev  0x0000242a      0x21e /opt/cross/lib/gcc/arm-elf/4.2.1/../../../../arm-elf/lib/thumb/interwork/libg.a(lib_a-locale.o)
 .debug_abbrev  0x00002648      0x21d /opt/cross/lib/gcc/arm-elf/4.2.1/../../../../arm-elf/lib/thumb/interwork/libg.a(lib_a-mallocr.o)
 .debug_abbrev  0x00002865       0xcb /opt/cross/lib/gcc/arm-elf/4.2.1/../../../../arm-elf/lib/thumb/interwork/libg.a(lib_a-memchr.o)
 .debug_abbrev  0x00002930       0xa0 /opt/cross/lib/gcc/arm-elf/4.2.1/../../../../arm-elf/lib/thumb/interwork/libg.a(lib_a-memmove.o)
 .debug_abbrev  0x000029d0      0x171 /opt/cross/lib/gcc/arm-elf/4.2.1/../../../../arm-elf/lib/thumb/interwork/libg.a(lib_a-mlock.o)
 .debug_abbrev  0x00002b41      0x29e /opt/cross/lib/gcc/arm-elf/4.2.1/../../../../arm-elf/lib/thumb/interwork/libg.a(lib_a-mprec.o)
 .debug_abbrev  0x00002ddf      0x1d7 /opt/cross/lib/gcc/arm-elf/4.2.1/../../../../arm-elf/lib/thumb/interwork/libg.a(lib_a-reallocr.o)
 .debug_abbrev  0x00002fb6      0x193 /opt/cross/lib/gcc/arm-elf/4.2.1/../../../../arm-elf/lib/thumb/interwork/libg.a(lib_a-sbrkr.o)
 .debug_abbrev  0x00003149       0x80 /opt/cross/lib/gcc/arm-elf/4.2.1/../../../../arm-elf/lib/thumb/interwork/libg.a(lib_a-s_isinfd.o)
 .debug_abbrev  0x000031c9       0x80 /opt/cross/lib/gcc/arm-elf/4.2.1/../../../../arm-elf/lib/thumb/interwork/libg.a(lib_a-s_isnand.o)
 .debug_abbrev  0x00003249       0x78 /opt/cross/lib/gcc/arm-elf/4.2.1/../../../../arm-elf/lib/thumb/interwork/libg.a(lib_a-strcmp.o)
 .debug_abbrev  0x000032c1      0x40c /opt/cross/lib/gcc/arm-elf/4.2.1/../../../../arm-elf/lib/thumb/interwork/libg.a(lib_a-syscalls.o)
 .debug_abbrev  0x000036cd      0x1b6 /opt/cross/lib/gcc/arm-elf/4.2.1/../../../../arm-elf/lib/thumb/interwork/libg.a(lib_a-callocr.o)
 .debug_abbrev  0x00003883      0x166 /opt/cross/lib/gcc/arm-elf/4.2.1/../../../../arm-elf/lib/thumb/interwork/libg.a(lib_a-errno.o)
 .debug_abbrev  0x000039e9      0x242 /opt/cross/lib/gcc/arm-elf/4.2.1/../../../../arm-elf/lib/thumb/interwork/libg.a(lib_a-findfp.o)
 .debug_abbrev  0x00003c2b      0x1ea /opt/cross/lib/gcc/arm-elf/4.2.1/../../../../arm-elf/lib/thumb/interwork/libg.a(lib_a-fwalk.o)
 .debug_abbrev  0x00003e15      0x1e1 /opt/cross/lib/gcc/arm-elf/4.2.1/../../../../arm-elf/lib/thumb/interwork/libg.a(lib_a-reent.o)
 .debug_abbrev  0x00003ff6      0x1b7 /opt/cross/lib/gcc/arm-elf/4.2.1/../../../../arm-elf/lib/thumb/interwork/libg.a(lib_a-stdio.o)
 .debug_abbrev  0x000041ad      0x18b /opt/cross/lib/gcc/arm-elf/4.2.1/../../../../arm-elf/lib/thumb/interwork/libg.a(lib_a-writer.o)
 .debug_abbrev  0x00004338      0x186 /opt/cross/lib/gcc/arm-elf/4.2.1/../../../../arm-elf/lib/thumb/interwork/libg.a(lib_a-closer.o)
 .debug_abbrev  0x000044be      0x195 /opt/cross/lib/gcc/arm-elf/4.2.1/../../../../arm-elf/lib/thumb/interwork/libg.a(lib_a-fclose.o)
 .debug_abbrev  0x00004653      0x1b2 /opt/cross/lib/gcc/arm-elf/4.2.1/../../../../arm-elf/lib/thumb/interwork/libg.a(lib_a-fflush.o)
 .debug_abbrev  0x00004805      0x193 /opt/cross/lib/gcc/arm-elf/4.2.1/../../../../arm-elf/lib/thumb/interwork/libg.a(lib_a-lseekr.o)
 .debug_abbrev  0x00004998      0x186 /opt/cross/lib/gcc/arm-elf/4.2.1/../../../../arm-elf/lib/thumb/interwork/libg.a(lib_a-readr.o)
 .debug_abbrev  0x00004b1e       0x14 /opt/cross/lib/gcc/arm-elf/4.2.1/thumb/interwork/libgcc.a(_umodsi3.o)
 .debug_abbrev  0x00004b32       0x14 /opt/cross/lib/gcc/arm-elf/4.2.1/thumb/interwork/libgcc.a(_modsi3.o)
 .debug_abbrev  0x00004b46      0x1be /opt/cross/lib/gcc/arm-elf/4.2.1/thumb/interwork/libgcc.a(_addsub_df.o)
 .debug_abbrev  0x00004d04      0x1ee /opt/cross/lib/gcc/arm-elf/4.2.1/thumb/interwork/libgcc.a(_mul_df.o)
 .debug_abbrev  0x00004ef2      0x1e2 /opt/cross/lib/gcc/arm-elf/4.2.1/thumb/interwork/libgcc.a(_div_df.o)
 .debug_abbrev  0x000050d4      0x160 /opt/cross/lib/gcc/arm-elf/4.2.1/thumb/interwork/libgcc.a(_eq_df.o)
 .debug_abbrev  0x00005234      0x160 /opt/cross/lib/gcc/arm-elf/4.2.1/thumb/interwork/libgcc.a(_ne_df.o)
 .debug_abbrev  0x00005394      0x160 /opt/cross/lib/gcc/arm-elf/4.2.1/thumb/interwork/libgcc.a(_gt_df.o)
 .debug_abbrev  0x000054f4      0x160 /opt/cross/lib/gcc/arm-elf/4.2.1/thumb/interwork/libgcc.a(_ge_df.o)
 .debug_abbrev  0x00005654      0x160 /opt/cross/lib/gcc/arm-elf/4.2.1/thumb/interwork/libgcc.a(_lt_df.o)
 .debug_abbrev  0x000057b4      0x138 /opt/cross/lib/gcc/arm-elf/4.2.1/thumb/interwork/libgcc.a(_si_to_df.o)
 .debug_abbrev  0x000058ec      0x16f /opt/cross/lib/gcc/arm-elf/4.2.1/thumb/interwork/libgcc.a(_df_to_si.o)
 .debug_abbrev  0x00005a5b       0xc3 /opt/cross/lib/gcc/arm-elf/4.2.1/thumb/interwork/libgcc.a(_thenan_df.o)
 .debug_abbrev  0x00005b1e      0x14c /opt/cross/lib/gcc/arm-elf/4.2.1/thumb/interwork/libgcc.a(_usi_to_df.o)
 .debug_abbrev  0x00005c6a       0xf3 /opt/cross/lib/gcc/arm-elf/4.2.1/thumb/interwork/libgcc.a(_muldi3.o)
 .debug_abbrev  0x00005d5d       0xb1 /opt/cross/lib/gcc/arm-elf/4.2.1/thumb/interwork/libgcc.a(_clzsi2.o)
 .debug_abbrev  0x00005e0e      0x1b1 /opt/cross/lib/gcc/arm-elf/4.2.1/thumb/interwork/libgcc.a(_pack_df.o)
 .debug_abbrev  0x00005fbf      0x154 /opt/cross/lib/gcc/arm-elf/4.2.1/thumb/interwork/libgcc.a(_unpack_df.o)
 .debug_abbrev  0x00006113      0x11a /opt/cross/lib/gcc/arm-elf/4.2.1/thumb/interwork/libgcc.a(_fpcmp_parts_df.o)
 .debug_abbrev  0x0000622d       0x68 /opt/cross/lib/gcc/arm-elf/4.2.1/thumb/interwork/libgcc.a(_clz.o)

.debug_info     0x00000000    0x195e7
 .debug_info    0x00000000      0x1e0 ../Common/drivers/LPC/peripherals/pwm.o
 .debug_info    0x000001e0      0x2f8 ../Common/drivers/LPC/serial/serial.o
 .debug_info    0x000004d8      0x20f ../Common/drivers/LPC/serial/serialISR.o
 .debug_info    0x000006e7       0xbd ../Common/drivers/LPC/printf/uart0PutChar2.o
 .debug_info    0x000007a4      0x27f ../Common/drivers/LPC/printf/printf2.o
 .debug_info    0x00000a23      0x2d3 ../Common/drivers/LPC/printf/printfHelpers.o
 .debug_info    0x00000cf6      0x309 ../Common/drivers/LPC/i2c/i2c.o
 .debug_info    0x00000fff      0x12b ../Source/portable/GCC/ARM7_LPC23xx/portISR.o
 .debug_info    0x0000112a      0x292 main.o
 .debug_info    0x000013bc      0x2e9 ../Common/Minimal/BlockQ.o
 .debug_info    0x000016a5      0x237 ../Common/Minimal/blocktim.o
 .debug_info    0x000018dc      0x15f ../Common/Minimal/integer.o
 .debug_info    0x00001a3b      0x273 ../Common/Minimal/GenQTest.o
 .debug_info    0x00001cae      0x257 ../Common/Minimal/QPeek.o
 .debug_info    0x00001f05      0x2ca ../Common/Minimal/dynamic.o
 .debug_info    0x000021cf      0x2a0 ../Source/list.o
 .debug_info    0x0000246f      0x78c ../Source/queue.o
 .debug_info    0x00002bfb      0xef2 ../Source/tasks.o
 .debug_info    0x00003aed      0x156 ../Source/portable/GCC/ARM7_LPC23xx/port.o
 .debug_info    0x00003c43      0x271 ../Source/portable/MemMang/heap_2.o
 .debug_info    0x00003eb4       0x65 /tmp/ccyCmckx.o
 .debug_info    0x00003f19       0xac /opt/cross/lib/gcc/arm-elf/4.2.1/thumb/interwork/libgcc.a(_udivsi3.o)
 .debug_info    0x00003fc5       0xac /opt/cross/lib/gcc/arm-elf/4.2.1/thumb/interwork/libgcc.a(_divsi3.o)
 .debug_info    0x00004071       0xac /opt/cross/lib/gcc/arm-elf/4.2.1/thumb/interwork/libgcc.a(_dvmd_tls.o)
 .debug_info    0x0000411d      0x13c /opt/cross/lib/gcc/arm-elf/4.2.1/../../../../arm-elf/lib/thumb/interwork/libg.a(lib_a-memcpy.o)
 .debug_info    0x00004259      0x111 /opt/cross/lib/gcc/arm-elf/4.2.1/../../../../arm-elf/lib/thumb/interwork/libg.a(lib_a-memset.o)
 .debug_info    0x0000436a      0xa40 /opt/cross/lib/gcc/arm-elf/4.2.1/../../../../arm-elf/lib/thumb/interwork/libg.a(lib_a-sprintf.o)
 .debug_info    0x00004daa       0xe5 /opt/cross/lib/gcc/arm-elf/4.2.1/../../../../arm-elf/lib/thumb/interwork/libg.a(lib_a-strcat.o)
 .debug_info    0x00004e8f      0x10c /opt/cross/lib/gcc/arm-elf/4.2.1/../../../../arm-elf/lib/thumb/interwork/libg.a(lib_a-strcpy.o)
 .debug_info    0x00004f9b       0xd5 /opt/cross/lib/gcc/arm-elf/4.2.1/../../../../arm-elf/lib/thumb/interwork/libg.a(lib_a-strlen.o)
 .debug_info    0x00005070      0x126 /opt/cross/lib/gcc/arm-elf/4.2.1/../../../../arm-elf/lib/thumb/interwork/libg.a(lib_a-strncpy.o)
 .debug_info    0x00005196     0x1035 /opt/cross/lib/gcc/arm-elf/4.2.1/../../../../arm-elf/lib/thumb/interwork/libg.a(lib_a-svfprintf.o)
 .debug_info    0x000061cb      0xd91 /opt/cross/lib/gcc/arm-elf/4.2.1/../../../../arm-elf/lib/thumb/interwork/libg.a(lib_a-dtoa.o)
 .debug_info    0x00006f5c      0xbed /opt/cross/lib/gcc/arm-elf/4.2.1/../../../../arm-elf/lib/thumb/interwork/libg.a(lib_a-freer.o)
 .debug_info    0x00007b49      0x961 /opt/cross/lib/gcc/arm-elf/4.2.1/../../../../arm-elf/lib/thumb/interwork/libg.a(lib_a-impure.o)
 .debug_info    0x000084aa      0xbc5 /opt/cross/lib/gcc/arm-elf/4.2.1/../../../../arm-elf/lib/thumb/interwork/libg.a(lib_a-locale.o)
 .debug_info    0x0000906f      0xcf0 /opt/cross/lib/gcc/arm-elf/4.2.1/../../../../arm-elf/lib/thumb/interwork/libg.a(lib_a-mallocr.o)
 .debug_info    0x00009d5f      0x121 /opt/cross/lib/gcc/arm-elf/4.2.1/../../../../arm-elf/lib/thumb/interwork/libg.a(lib_a-memchr.o)
 .debug_info    0x00009e80      0x13e /opt/cross/lib/gcc/arm-elf/4.2.1/../../../../arm-elf/lib/thumb/interwork/libg.a(lib_a-memmove.o)
 .debug_info    0x00009fbe      0x97b /opt/cross/lib/gcc/arm-elf/4.2.1/../../../../arm-elf/lib/thumb/interwork/libg.a(lib_a-mlock.o)
 .debug_info    0x0000a939     0x146d /opt/cross/lib/gcc/arm-elf/4.2.1/../../../../arm-elf/lib/thumb/interwork/libg.a(lib_a-mprec.o)
 .debug_info    0x0000bda6      0xbef /opt/cross/lib/gcc/arm-elf/4.2.1/../../../../arm-elf/lib/thumb/interwork/libg.a(lib_a-reallocr.o)
 .debug_info    0x0000c995      0x986 /opt/cross/lib/gcc/arm-elf/4.2.1/../../../../arm-elf/lib/thumb/interwork/libg.a(lib_a-sbrkr.o)
 .debug_info    0x0000d31b       0xcd /opt/cross/lib/gcc/arm-elf/4.2.1/../../../../arm-elf/lib/thumb/interwork/libg.a(lib_a-s_isinfd.o)
 .debug_info    0x0000d3e8       0xcf /opt/cross/lib/gcc/arm-elf/4.2.1/../../../../arm-elf/lib/thumb/interwork/libg.a(lib_a-s_isnand.o)
 .debug_info    0x0000d4b7       0xd9 /opt/cross/lib/gcc/arm-elf/4.2.1/../../../../arm-elf/lib/thumb/interwork/libg.a(lib_a-strcmp.o)
 .debug_info    0x0000d590     0x178c /opt/cross/lib/gcc/arm-elf/4.2.1/../../../../arm-elf/lib/thumb/interwork/libg.a(lib_a-syscalls.o)
 .debug_info    0x0000ed1c      0xa3b /opt/cross/lib/gcc/arm-elf/4.2.1/../../../../arm-elf/lib/thumb/interwork/libg.a(lib_a-callocr.o)
 .debug_info    0x0000f757      0x952 /opt/cross/lib/gcc/arm-elf/4.2.1/../../../../arm-elf/lib/thumb/interwork/libg.a(lib_a-errno.o)
 .debug_info    0x000100a9      0xbab /opt/cross/lib/gcc/arm-elf/4.2.1/../../../../arm-elf/lib/thumb/interwork/libg.a(lib_a-findfp.o)
 .debug_info    0x00010c54      0xb11 /opt/cross/lib/gcc/arm-elf/4.2.1/../../../../arm-elf/lib/thumb/interwork/libg.a(lib_a-fwalk.o)
 .debug_info    0x00011765      0xa46 /opt/cross/lib/gcc/arm-elf/4.2.1/../../../../arm-elf/lib/thumb/interwork/libg.a(lib_a-reent.o)
 .debug_info    0x000121ab      0xad6 /opt/cross/lib/gcc/arm-elf/4.2.1/../../../../arm-elf/lib/thumb/interwork/libg.a(lib_a-stdio.o)
 .debug_info    0x00012c81      0x9b9 /opt/cross/lib/gcc/arm-elf/4.2.1/../../../../arm-elf/lib/thumb/interwork/libg.a(lib_a-writer.o)
 .debug_info    0x0001363a      0x97e /opt/cross/lib/gcc/arm-elf/4.2.1/../../../../arm-elf/lib/thumb/interwork/libg.a(lib_a-closer.o)
 .debug_info    0x00013fb8      0x9ba /opt/cross/lib/gcc/arm-elf/4.2.1/../../../../arm-elf/lib/thumb/interwork/libg.a(lib_a-fclose.o)
 .debug_info    0x00014972      0xa20 /opt/cross/lib/gcc/arm-elf/4.2.1/../../../../arm-elf/lib/thumb/interwork/libg.a(lib_a-fflush.o)
 .debug_info    0x00015392      0x9a3 /opt/cross/lib/gcc/arm-elf/4.2.1/../../../../arm-elf/lib/thumb/interwork/libg.a(lib_a-lseekr.o)
 .debug_info    0x00015d35      0x9b2 /opt/cross/lib/gcc/arm-elf/4.2.1/../../../../arm-elf/lib/thumb/interwork/libg.a(lib_a-readr.o)
 .debug_info    0x000166e7       0xac /opt/cross/lib/gcc/arm-elf/4.2.1/thumb/interwork/libgcc.a(_umodsi3.o)
 .debug_info    0x00016793       0xac /opt/cross/lib/gcc/arm-elf/4.2.1/thumb/interwork/libgcc.a(_modsi3.o)
 .debug_info    0x0001683f      0x485 /opt/cross/lib/gcc/arm-elf/4.2.1/thumb/interwork/libgcc.a(_addsub_df.o)
 .debug_info    0x00016cc4      0x46b /opt/cross/lib/gcc/arm-elf/4.2.1/thumb/interwork/libgcc.a(_mul_df.o)
 .debug_info    0x0001712f      0x3a9 /opt/cross/lib/gcc/arm-elf/4.2.1/thumb/interwork/libgcc.a(_div_df.o)
 .debug_info    0x000174d8      0x2a6 /opt/cross/lib/gcc/arm-elf/4.2.1/thumb/interwork/libgcc.a(_eq_df.o)
 .debug_info    0x0001777e      0x2a6 /opt/cross/lib/gcc/arm-elf/4.2.1/thumb/interwork/libgcc.a(_ne_df.o)
 .debug_info    0x00017a24      0x2a6 /opt/cross/lib/gcc/arm-elf/4.2.1/thumb/interwork/libgcc.a(_gt_df.o)
 .debug_info    0x00017cca      0x2a6 /opt/cross/lib/gcc/arm-elf/4.2.1/thumb/interwork/libgcc.a(_ge_df.o)
 .debug_info    0x00017f70      0x2a6 /opt/cross/lib/gcc/arm-elf/4.2.1/thumb/interwork/libgcc.a(_lt_df.o)
 .debug_info    0x00018216      0x20d /opt/cross/lib/gcc/arm-elf/4.2.1/thumb/interwork/libgcc.a(_si_to_df.o)
 .debug_info    0x00018423      0x2da /opt/cross/lib/gcc/arm-elf/4.2.1/thumb/interwork/libgcc.a(_df_to_si.o)
 .debug_info    0x000186fd      0x160 /opt/cross/lib/gcc/arm-elf/4.2.1/thumb/interwork/libgcc.a(_thenan_df.o)
 .debug_info    0x0001885d      0x204 /opt/cross/lib/gcc/arm-elf/4.2.1/thumb/interwork/libgcc.a(_usi_to_df.o)
 .debug_info    0x00018a61      0x1ff /opt/cross/lib/gcc/arm-elf/4.2.1/thumb/interwork/libgcc.a(_muldi3.o)
 .debug_info    0x00018c60      0x11f /opt/cross/lib/gcc/arm-elf/4.2.1/thumb/interwork/libgcc.a(_clzsi2.o)
 .debug_info    0x00018d7f      0x320 /opt/cross/lib/gcc/arm-elf/4.2.1/thumb/interwork/libgcc.a(_pack_df.o)
 .debug_info    0x0001909f      0x27a /opt/cross/lib/gcc/arm-elf/4.2.1/thumb/interwork/libgcc.a(_unpack_df.o)
 .debug_info    0x00019319      0x214 /opt/cross/lib/gcc/arm-elf/4.2.1/thumb/interwork/libgcc.a(_fpcmp_parts_df.o)
 .debug_info    0x0001952d       0xba /opt/cross/lib/gcc/arm-elf/4.2.1/thumb/interwork/libgcc.a(_clz.o)

.debug_line     0x00000000     0x5a7f
 .debug_line    0x00000000       0xf8 ../Common/drivers/LPC/peripherals/pwm.o
 .debug_line    0x000000f8      0x124 ../Common/drivers/LPC/serial/serial.o
 .debug_line    0x0000021c       0xb4 ../Common/drivers/LPC/serial/serialISR.o
 .debug_line    0x000002d0       0x5e ../Common/drivers/LPC/printf/uart0PutChar2.o
 .debug_line    0x0000032e       0xcb ../Common/drivers/LPC/printf/printf2.o
 .debug_line    0x000003f9      0x101 ../Common/drivers/LPC/printf/printfHelpers.o
 .debug_line    0x000004fa      0x138 ../Common/drivers/LPC/i2c/i2c.o
 .debug_line    0x00000632       0x8e ../Source/portable/GCC/ARM7_LPC23xx/portISR.o
 .debug_line    0x000006c0      0x140 main.o
 .debug_line    0x00000800       0xf3 ../Common/Minimal/BlockQ.o
 .debug_line    0x000008f3      0x153 ../Common/Minimal/blocktim.o
 .debug_line    0x00000a46       0x64 ../Common/Minimal/integer.o
 .debug_line    0x00000aaa      0x11c ../Common/Minimal/GenQTest.o
 .debug_line    0x00000bc6       0xdf ../Common/Minimal/QPeek.o
 .debug_line    0x00000ca5       0xd4 ../Common/Minimal/dynamic.o
 .debug_line    0x00000d79       0xce ../Source/list.o
 .debug_line    0x00000e47      0x1f3 ../Source/queue.o
 .debug_line    0x0000103a      0x2d0 ../Source/tasks.o
 .debug_line    0x0000130a       0xc0 ../Source/portable/GCC/ARM7_LPC23xx/port.o
 .debug_line    0x000013ca       0xa8 ../Source/portable/MemMang/heap_2.o
 .debug_line    0x00001472       0x78 /tmp/ccyCmckx.o
 .debug_line    0x000014ea       0x91 /opt/cross/lib/gcc/arm-elf/4.2.1/thumb/interwork/libgcc.a(_udivsi3.o)
 .debug_line    0x0000157b       0x9d /opt/cross/lib/gcc/arm-elf/4.2.1/thumb/interwork/libgcc.a(_divsi3.o)
 .debug_line    0x00001618       0x7b /opt/cross/lib/gcc/arm-elf/4.2.1/thumb/interwork/libgcc.a(_dvmd_tls.o)
 .debug_line    0x00001693       0xce /opt/cross/lib/gcc/arm-elf/4.2.1/../../../../arm-elf/lib/thumb/interwork/libg.a(lib_a-memcpy.o)
 .debug_line    0x00001761       0xd6 /opt/cross/lib/gcc/arm-elf/4.2.1/../../../../arm-elf/lib/thumb/interwork/libg.a(lib_a-memset.o)
 .debug_line    0x00001837      0x19a /opt/cross/lib/gcc/arm-elf/4.2.1/../../../../arm-elf/lib/thumb/interwork/libg.a(lib_a-sprintf.o)
 .debug_line    0x000019d1       0x8c /opt/cross/lib/gcc/arm-elf/4.2.1/../../../../arm-elf/lib/thumb/interwork/libg.a(lib_a-strcat.o)
 .debug_line    0x00001a5d       0x92 /opt/cross/lib/gcc/arm-elf/4.2.1/../../../../arm-elf/lib/thumb/interwork/libg.a(lib_a-strcpy.o)
 .debug_line    0x00001aef       0xc5 /opt/cross/lib/gcc/arm-elf/4.2.1/../../../../arm-elf/lib/thumb/interwork/libg.a(lib_a-strlen.o)
 .debug_line    0x00001bb4       0xd5 /opt/cross/lib/gcc/arm-elf/4.2.1/../../../../arm-elf/lib/thumb/interwork/libg.a(lib_a-strncpy.o)
 .debug_line    0x00001c89      0x57a /opt/cross/lib/gcc/arm-elf/4.2.1/../../../../arm-elf/lib/thumb/interwork/libg.a(lib_a-svfprintf.o)
 .debug_line    0x00002203      0x45b /opt/cross/lib/gcc/arm-elf/4.2.1/../../../../arm-elf/lib/thumb/interwork/libg.a(lib_a-dtoa.o)
 .debug_line    0x0000265e      0x187 /opt/cross/lib/gcc/arm-elf/4.2.1/../../../../arm-elf/lib/thumb/interwork/libg.a(lib_a-freer.o)
 .debug_line    0x000027e5      0x10d /opt/cross/lib/gcc/arm-elf/4.2.1/../../../../arm-elf/lib/thumb/interwork/libg.a(lib_a-impure.o)
 .debug_line    0x000028f2      0x192 /opt/cross/lib/gcc/arm-elf/4.2.1/../../../../arm-elf/lib/thumb/interwork/libg.a(lib_a-locale.o)
 .debug_line    0x00002a84      0x264 /opt/cross/lib/gcc/arm-elf/4.2.1/../../../../arm-elf/lib/thumb/interwork/libg.a(lib_a-mallocr.o)
 .debug_line    0x00002ce8       0xd2 /opt/cross/lib/gcc/arm-elf/4.2.1/../../../../arm-elf/lib/thumb/interwork/libg.a(lib_a-memchr.o)
 .debug_line    0x00002dba       0xdd /opt/cross/lib/gcc/arm-elf/4.2.1/../../../../arm-elf/lib/thumb/interwork/libg.a(lib_a-memmove.o)
 .debug_line    0x00002e97      0x11f /opt/cross/lib/gcc/arm-elf/4.2.1/../../../../arm-elf/lib/thumb/interwork/libg.a(lib_a-mlock.o)
 .debug_line    0x00002fb6      0x421 /opt/cross/lib/gcc/arm-elf/4.2.1/../../../../arm-elf/lib/thumb/interwork/libg.a(lib_a-mprec.o)
 .debug_line    0x000033d7      0x1c1 /opt/cross/lib/gcc/arm-elf/4.2.1/../../../../arm-elf/lib/thumb/interwork/libg.a(lib_a-reallocr.o)
 .debug_line    0x00003598      0x122 /opt/cross/lib/gcc/arm-elf/4.2.1/../../../../arm-elf/lib/thumb/interwork/libg.a(lib_a-sbrkr.o)
 .debug_line    0x000036ba       0xe5 /opt/cross/lib/gcc/arm-elf/4.2.1/../../../../arm-elf/lib/thumb/interwork/libg.a(lib_a-s_isinfd.o)
 .debug_line    0x0000379f       0xe8 /opt/cross/lib/gcc/arm-elf/4.2.1/../../../../arm-elf/lib/thumb/interwork/libg.a(lib_a-s_isnand.o)
 .debug_line    0x00003887       0x9c /opt/cross/lib/gcc/arm-elf/4.2.1/../../../../arm-elf/lib/thumb/interwork/libg.a(lib_a-strcmp.o)
 .debug_line    0x00003923      0x346 /opt/cross/lib/gcc/arm-elf/4.2.1/../../../../arm-elf/lib/thumb/interwork/libg.a(lib_a-syscalls.o)
 .debug_line    0x00003c69      0x128 /opt/cross/lib/gcc/arm-elf/4.2.1/../../../../arm-elf/lib/thumb/interwork/libg.a(lib_a-callocr.o)
 .debug_line    0x00003d91      0x11c /opt/cross/lib/gcc/arm-elf/4.2.1/../../../../arm-elf/lib/thumb/interwork/libg.a(lib_a-errno.o)
 .debug_line    0x00003ead      0x202 /opt/cross/lib/gcc/arm-elf/4.2.1/../../../../arm-elf/lib/thumb/interwork/libg.a(lib_a-findfp.o)
 .debug_line    0x000040af      0x198 /opt/cross/lib/gcc/arm-elf/4.2.1/../../../../arm-elf/lib/thumb/interwork/libg.a(lib_a-fwalk.o)
 .debug_line    0x00004247      0x158 /opt/cross/lib/gcc/arm-elf/4.2.1/../../../../arm-elf/lib/thumb/interwork/libg.a(lib_a-reent.o)
 .debug_line    0x0000439f      0x195 /opt/cross/lib/gcc/arm-elf/4.2.1/../../../../arm-elf/lib/thumb/interwork/libg.a(lib_a-stdio.o)
 .debug_line    0x00004534      0x123 /opt/cross/lib/gcc/arm-elf/4.2.1/../../../../arm-elf/lib/thumb/interwork/libg.a(lib_a-writer.o)
 .debug_line    0x00004657      0x123 /opt/cross/lib/gcc/arm-elf/4.2.1/../../../../arm-elf/lib/thumb/interwork/libg.a(lib_a-closer.o)
 .debug_line    0x0000477a      0x195 /opt/cross/lib/gcc/arm-elf/4.2.1/../../../../arm-elf/lib/thumb/interwork/libg.a(lib_a-fclose.o)
 .debug_line    0x0000490f      0x1d5 /opt/cross/lib/gcc/arm-elf/4.2.1/../../../../arm-elf/lib/thumb/interwork/libg.a(lib_a-fflush.o)
 .debug_line    0x00004ae4      0x123 /opt/cross/lib/gcc/arm-elf/4.2.1/../../../../arm-elf/lib/thumb/interwork/libg.a(lib_a-lseekr.o)
 .debug_line    0x00004c07      0x122 /opt/cross/lib/gcc/arm-elf/4.2.1/../../../../arm-elf/lib/thumb/interwork/libg.a(lib_a-readr.o)
 .debug_line    0x00004d29       0x89 /opt/cross/lib/gcc/arm-elf/4.2.1/thumb/interwork/libgcc.a(_umodsi3.o)
 .debug_line    0x00004db2       0x92 /opt/cross/lib/gcc/arm-elf/4.2.1/thumb/interwork/libgcc.a(_modsi3.o)
 .debug_line    0x00004e44      0x13b /opt/cross/lib/gcc/arm-elf/4.2.1/thumb/interwork/libgcc.a(_addsub_df.o)
 .debug_line    0x00004f7f      0x10d /opt/cross/lib/gcc/arm-elf/4.2.1/thumb/interwork/libgcc.a(_mul_df.o)
 .debug_line    0x0000508c       0xea /opt/cross/lib/gcc/arm-elf/4.2.1/thumb/interwork/libgcc.a(_div_df.o)
 .debug_line    0x00005176       0x8f /opt/cross/lib/gcc/arm-elf/4.2.1/thumb/interwork/libgcc.a(_eq_df.o)
 .debug_line    0x00005205       0x8f /opt/cross/lib/gcc/arm-elf/4.2.1/thumb/interwork/libgcc.a(_ne_df.o)
 .debug_line    0x00005294       0x8f /opt/cross/lib/gcc/arm-elf/4.2.1/thumb/interwork/libgcc.a(_gt_df.o)
 .debug_line    0x00005323       0x8f /opt/cross/lib/gcc/arm-elf/4.2.1/thumb/interwork/libgcc.a(_ge_df.o)
 .debug_line    0x000053b2       0x8f /opt/cross/lib/gcc/arm-elf/4.2.1/thumb/interwork/libgcc.a(_lt_df.o)
 .debug_line    0x00005441       0xac /opt/cross/lib/gcc/arm-elf/4.2.1/thumb/interwork/libgcc.a(_si_to_df.o)
 .debug_line    0x000054ed       0xa4 /opt/cross/lib/gcc/arm-elf/4.2.1/thumb/interwork/libgcc.a(_df_to_si.o)
 .debug_line    0x00005591       0x6e /opt/cross/lib/gcc/arm-elf/4.2.1/thumb/interwork/libgcc.a(_thenan_df.o)
 .debug_line    0x000055ff       0xa1 /opt/cross/lib/gcc/arm-elf/4.2.1/thumb/interwork/libgcc.a(_usi_to_df.o)
 .debug_line    0x000056a0       0x83 /opt/cross/lib/gcc/arm-elf/4.2.1/thumb/interwork/libgcc.a(_muldi3.o)
 .debug_line    0x00005723       0x8c /opt/cross/lib/gcc/arm-elf/4.2.1/thumb/interwork/libgcc.a(_clzsi2.o)
 .debug_line    0x000057af       0xec /opt/cross/lib/gcc/arm-elf/4.2.1/thumb/interwork/libgcc.a(_pack_df.o)
 .debug_line    0x0000589b       0xb5 /opt/cross/lib/gcc/arm-elf/4.2.1/thumb/interwork/libgcc.a(_unpack_df.o)
 .debug_line    0x00005950       0xc6 /opt/cross/lib/gcc/arm-elf/4.2.1/thumb/interwork/libgcc.a(_fpcmp_parts_df.o)
 .debug_line    0x00005a16       0x69 /opt/cross/lib/gcc/arm-elf/4.2.1/thumb/interwork/libgcc.a(_clz.o)

.debug_frame    0x00000000     0x2124
 .debug_frame   0x00000000       0x6c ../Common/drivers/LPC/peripherals/pwm.o
 .debug_frame   0x0000006c       0xa4 ../Common/drivers/LPC/serial/serial.o
 .debug_frame   0x00000110       0x50 ../Common/drivers/LPC/serial/serialISR.o
 .debug_frame   0x00000160       0x28 ../Common/drivers/LPC/printf/uart0PutChar2.o
 .debug_frame   0x00000188       0x8c ../Common/drivers/LPC/printf/printf2.o
 .debug_frame   0x00000214       0x94 ../Common/drivers/LPC/printf/printfHelpers.o
 .debug_frame   0x000002a8       0x98 ../Common/drivers/LPC/i2c/i2c.o
 .debug_frame   0x00000340       0x80 ../Source/portable/GCC/ARM7_LPC23xx/portISR.o
 .debug_frame   0x000003c0       0x90 main.o
 .debug_frame   0x00000450       0x94 ../Common/Minimal/BlockQ.o
 .debug_frame   0x000004e4       0x74 ../Common/Minimal/blocktim.o
 .debug_frame   0x00000558       0x58 ../Common/Minimal/integer.o
 .debug_frame   0x000005b0       0xa4 ../Common/Minimal/GenQTest.o
 .debug_frame   0x00000654       0xac ../Common/Minimal/QPeek.o
 .debug_frame   0x00000700       0xc8 ../Common/Minimal/dynamic.o
 .debug_frame   0x000007c8       0x68 ../Source/list.o
 .debug_frame   0x00000830      0x174 ../Source/queue.o
 .debug_frame   0x000009a4      0x358 ../Source/tasks.o
 .debug_frame   0x00000cfc       0x50 ../Source/portable/GCC/ARM7_LPC23xx/port.o
 .debug_frame   0x00000d4c       0x44 ../Source/portable/MemMang/heap_2.o
 .debug_frame   0x00000d90       0x28 /opt/cross/lib/gcc/arm-elf/4.2.1/thumb/interwork/libgcc.a(_udivsi3.o)
 .debug_frame   0x00000db8       0x28 /opt/cross/lib/gcc/arm-elf/4.2.1/thumb/interwork/libgcc.a(_divsi3.o)
 .debug_frame   0x00000de0       0x2c /opt/cross/lib/gcc/arm-elf/4.2.1/../../../../arm-elf/lib/thumb/interwork/libg.a(lib_a-memcpy.o)
 .debug_frame   0x00000e0c       0x2c /opt/cross/lib/gcc/arm-elf/4.2.1/../../../../arm-elf/lib/thumb/interwork/libg.a(lib_a-memset.o)
 .debug_frame   0x00000e38       0x4c /opt/cross/lib/gcc/arm-elf/4.2.1/../../../../arm-elf/lib/thumb/interwork/libg.a(lib_a-sprintf.o)
 .debug_frame   0x00000e84       0x2c /opt/cross/lib/gcc/arm-elf/4.2.1/../../../../arm-elf/lib/thumb/interwork/libg.a(lib_a-strcat.o)
 .debug_frame   0x00000eb0       0x2c /opt/cross/lib/gcc/arm-elf/4.2.1/../../../../arm-elf/lib/thumb/interwork/libg.a(lib_a-strcpy.o)
 .debug_frame   0x00000edc       0x28 /opt/cross/lib/gcc/arm-elf/4.2.1/../../../../arm-elf/lib/thumb/interwork/libg.a(lib_a-strlen.o)
 .debug_frame   0x00000f04       0x2c /opt/cross/lib/gcc/arm-elf/4.2.1/../../../../arm-elf/lib/thumb/interwork/libg.a(lib_a-strncpy.o)
 .debug_frame   0x00000f30       0x68 /opt/cross/lib/gcc/arm-elf/4.2.1/../../../../arm-elf/lib/thumb/interwork/libg.a(lib_a-svfprintf.o)
 .debug_frame   0x00000f98       0x68 /opt/cross/lib/gcc/arm-elf/4.2.1/../../../../arm-elf/lib/thumb/interwork/libg.a(lib_a-dtoa.o)
 .debug_frame   0x00001000       0x54 /opt/cross/lib/gcc/arm-elf/4.2.1/../../../../arm-elf/lib/thumb/interwork/libg.a(lib_a-freer.o)
 .debug_frame   0x00001054       0x80 /opt/cross/lib/gcc/arm-elf/4.2.1/../../../../arm-elf/lib/thumb/interwork/libg.a(lib_a-locale.o)
 .debug_frame   0x000010d4       0x38 /opt/cross/lib/gcc/arm-elf/4.2.1/../../../../arm-elf/lib/thumb/interwork/libg.a(lib_a-mallocr.o)
 .debug_frame   0x0000110c       0x2c /opt/cross/lib/gcc/arm-elf/4.2.1/../../../../arm-elf/lib/thumb/interwork/libg.a(lib_a-memchr.o)
 .debug_frame   0x00001138       0x30 /opt/cross/lib/gcc/arm-elf/4.2.1/../../../../arm-elf/lib/thumb/interwork/libg.a(lib_a-memmove.o)
 .debug_frame   0x00001168       0x30 /opt/cross/lib/gcc/arm-elf/4.2.1/../../../../arm-elf/lib/thumb/interwork/libg.a(lib_a-mlock.o)
 .debug_frame   0x00001198      0x258 /opt/cross/lib/gcc/arm-elf/4.2.1/../../../../arm-elf/lib/thumb/interwork/libg.a(lib_a-mprec.o)
 .debug_frame   0x000013f0       0x3c /opt/cross/lib/gcc/arm-elf/4.2.1/../../../../arm-elf/lib/thumb/interwork/libg.a(lib_a-reallocr.o)
 .debug_frame   0x0000142c       0x2c /opt/cross/lib/gcc/arm-elf/4.2.1/../../../../arm-elf/lib/thumb/interwork/libg.a(lib_a-sbrkr.o)
 .debug_frame   0x00001458       0x20 /opt/cross/lib/gcc/arm-elf/4.2.1/../../../../arm-elf/lib/thumb/interwork/libg.a(lib_a-s_isinfd.o)
 .debug_frame   0x00001478       0x20 /opt/cross/lib/gcc/arm-elf/4.2.1/../../../../arm-elf/lib/thumb/interwork/libg.a(lib_a-s_isnand.o)
 .debug_frame   0x00001498       0x28 /opt/cross/lib/gcc/arm-elf/4.2.1/../../../../arm-elf/lib/thumb/interwork/libg.a(lib_a-strcmp.o)
 .debug_frame   0x000014c0      0x328 /opt/cross/lib/gcc/arm-elf/4.2.1/../../../../arm-elf/lib/thumb/interwork/libg.a(lib_a-syscalls.o)
 .debug_frame   0x000017e8       0x28 /opt/cross/lib/gcc/arm-elf/4.2.1/../../../../arm-elf/lib/thumb/interwork/libg.a(lib_a-callocr.o)
 .debug_frame   0x00001810       0x20 /opt/cross/lib/gcc/arm-elf/4.2.1/../../../../arm-elf/lib/thumb/interwork/libg.a(lib_a-errno.o)
 .debug_frame   0x00001830      0x138 /opt/cross/lib/gcc/arm-elf/4.2.1/../../../../arm-elf/lib/thumb/interwork/libg.a(lib_a-findfp.o)
 .debug_frame   0x00001968       0x58 /opt/cross/lib/gcc/arm-elf/4.2.1/../../../../arm-elf/lib/thumb/interwork/libg.a(lib_a-fwalk.o)
 .debug_frame   0x000019c0       0x68 /opt/cross/lib/gcc/arm-elf/4.2.1/../../../../arm-elf/lib/thumb/interwork/libg.a(lib_a-reent.o)
 .debug_frame   0x00001a28       0x80 /opt/cross/lib/gcc/arm-elf/4.2.1/../../../../arm-elf/lib/thumb/interwork/libg.a(lib_a-stdio.o)
 .debug_frame   0x00001aa8       0x2c /opt/cross/lib/gcc/arm-elf/4.2.1/../../../../arm-elf/lib/thumb/interwork/libg.a(lib_a-writer.o)
 .debug_frame   0x00001ad4       0x2c /opt/cross/lib/gcc/arm-elf/4.2.1/../../../../arm-elf/lib/thumb/interwork/libg.a(lib_a-closer.o)
 .debug_frame   0x00001b00       0x44 /opt/cross/lib/gcc/arm-elf/4.2.1/../../../../arm-elf/lib/thumb/interwork/libg.a(lib_a-fclose.o)
 .debug_frame   0x00001b44       0x4c /opt/cross/lib/gcc/arm-elf/4.2.1/../../../../arm-elf/lib/thumb/interwork/libg.a(lib_a-fflush.o)
 .debug_frame   0x00001b90       0x2c /opt/cross/lib/gcc/arm-elf/4.2.1/../../../../arm-elf/lib/thumb/interwork/libg.a(lib_a-lseekr.o)
 .debug_frame   0x00001bbc       0x2c /opt/cross/lib/gcc/arm-elf/4.2.1/../../../../arm-elf/lib/thumb/interwork/libg.a(lib_a-readr.o)
 .debug_frame   0x00001be8       0x28 /opt/cross/lib/gcc/arm-elf/4.2.1/thumb/interwork/libgcc.a(_umodsi3.o)
 .debug_frame   0x00001c10       0x28 /opt/cross/lib/gcc/arm-elf/4.2.1/thumb/interwork/libgcc.a(_modsi3.o)
 .debug_frame   0x00001c38       0xb0 /opt/cross/lib/gcc/arm-elf/4.2.1/thumb/interwork/libgcc.a(_addsub_df.o)
 .debug_frame   0x00001ce8       0x74 /opt/cross/lib/gcc/arm-elf/4.2.1/thumb/interwork/libgcc.a(_mul_df.o)
 .debug_frame   0x00001d5c       0x70 /opt/cross/lib/gcc/arm-elf/4.2.1/thumb/interwork/libgcc.a(_div_df.o)
 .debug_frame   0x00001dcc       0x3c /opt/cross/lib/gcc/arm-elf/4.2.1/thumb/interwork/libgcc.a(_eq_df.o)
 .debug_frame   0x00001e08       0x3c /opt/cross/lib/gcc/arm-elf/4.2.1/thumb/interwork/libgcc.a(_ne_df.o)
 .debug_frame   0x00001e44       0x3c /opt/cross/lib/gcc/arm-elf/4.2.1/thumb/interwork/libgcc.a(_gt_df.o)
 .debug_frame   0x00001e80       0x3c /opt/cross/lib/gcc/arm-elf/4.2.1/thumb/interwork/libgcc.a(_ge_df.o)
 .debug_frame   0x00001ebc       0x3c /opt/cross/lib/gcc/arm-elf/4.2.1/thumb/interwork/libgcc.a(_lt_df.o)
 .debug_frame   0x00001ef8       0x44 /opt/cross/lib/gcc/arm-elf/4.2.1/thumb/interwork/libgcc.a(_si_to_df.o)
 .debug_frame   0x00001f3c       0x60 /opt/cross/lib/gcc/arm-elf/4.2.1/thumb/interwork/libgcc.a(_df_to_si.o)
 .debug_frame   0x00001f9c       0x48 /opt/cross/lib/gcc/arm-elf/4.2.1/thumb/interwork/libgcc.a(_usi_to_df.o)
 .debug_frame   0x00001fe4       0x38 /opt/cross/lib/gcc/arm-elf/4.2.1/thumb/interwork/libgcc.a(_muldi3.o)
 .debug_frame   0x0000201c       0x20 /opt/cross/lib/gcc/arm-elf/4.2.1/thumb/interwork/libgcc.a(_clzsi2.o)
 .debug_frame   0x0000203c       0x60 /opt/cross/lib/gcc/arm-elf/4.2.1/thumb/interwork/libgcc.a(_pack_df.o)
 .debug_frame   0x0000209c       0x2c /opt/cross/lib/gcc/arm-elf/4.2.1/thumb/interwork/libgcc.a(_unpack_df.o)
 .debug_frame   0x000020c8       0x5c /opt/cross/lib/gcc/arm-elf/4.2.1/thumb/interwork/libgcc.a(_fpcmp_parts_df.o)

.debug_loc      0x00000000     0xcb79
 .debug_loc     0x00000000      0x155 ../Common/drivers/LPC/peripherals/pwm.o
 .debug_loc     0x00000155      0x3a1 ../Common/drivers/LPC/serial/serial.o
 .debug_loc     0x000004f6       0xfa ../Common/drivers/LPC/serial/serialISR.o
 .debug_loc     0x000005f0       0x3e ../Common/drivers/LPC/printf/uart0PutChar2.o
 .debug_loc     0x0000062e      0x2db ../Common/drivers/LPC/printf/printf2.o
 .debug_loc     0x00000909      0x292 ../Common/drivers/LPC/printf/printfHelpers.o
 .debug_loc     0x00000b9b      0x1e5 ../Common/drivers/LPC/i2c/i2c.o
 .debug_loc     0x00000d80      0x12a main.o
 .debug_loc     0x00000eaa      0x20b ../Common/Minimal/BlockQ.o
 .debug_loc     0x000010b5      0x15e ../Common/Minimal/blocktim.o
 .debug_loc     0x00001213       0x87 ../Common/Minimal/integer.o
 .debug_loc     0x0000129a      0x1ff ../Common/Minimal/GenQTest.o
 .debug_loc     0x00001499      0x23f ../Common/Minimal/QPeek.o
 .debug_loc     0x000016d8      0x18e ../Common/Minimal/dynamic.o
 .debug_loc     0x00001866       0x79 ../Source/list.o
 .debug_loc     0x000018df      0x76e ../Source/queue.o
 .debug_loc     0x0000204d      0xc70 ../Source/tasks.o
 .debug_loc     0x00002cbd       0xae ../Source/portable/GCC/ARM7_LPC23xx/port.o
 .debug_loc     0x00002d6b      0x1eb ../Source/portable/MemMang/heap_2.o
 .debug_loc     0x00002f56      0x107 /opt/cross/lib/gcc/arm-elf/4.2.1/../../../../arm-elf/lib/thumb/interwork/libg.a(lib_a-memcpy.o)
 .debug_loc     0x0000305d       0xf1 /opt/cross/lib/gcc/arm-elf/4.2.1/../../../../arm-elf/lib/thumb/interwork/libg.a(lib_a-memset.o)
 .debug_loc     0x0000314e       0xe9 /opt/cross/lib/gcc/arm-elf/4.2.1/../../../../arm-elf/lib/thumb/interwork/libg.a(lib_a-sprintf.o)
 .debug_loc     0x00003237       0x84 /opt/cross/lib/gcc/arm-elf/4.2.1/../../../../arm-elf/lib/thumb/interwork/libg.a(lib_a-strcat.o)
 .debug_loc     0x000032bb       0xe9 /opt/cross/lib/gcc/arm-elf/4.2.1/../../../../arm-elf/lib/thumb/interwork/libg.a(lib_a-strcpy.o)
 .debug_loc     0x000033a4       0x66 /opt/cross/lib/gcc/arm-elf/4.2.1/../../../../arm-elf/lib/thumb/interwork/libg.a(lib_a-strlen.o)
 .debug_loc     0x0000340a      0x149 /opt/cross/lib/gcc/arm-elf/4.2.1/../../../../arm-elf/lib/thumb/interwork/libg.a(lib_a-strncpy.o)
 .debug_loc     0x00003553     0x1b48 /opt/cross/lib/gcc/arm-elf/4.2.1/../../../../arm-elf/lib/thumb/interwork/libg.a(lib_a-svfprintf.o)
 .debug_loc     0x0000509b     0x1909 /opt/cross/lib/gcc/arm-elf/4.2.1/../../../../arm-elf/lib/thumb/interwork/libg.a(lib_a-dtoa.o)
 .debug_loc     0x000069a4      0x49d /opt/cross/lib/gcc/arm-elf/4.2.1/../../../../arm-elf/lib/thumb/interwork/libg.a(lib_a-freer.o)
 .debug_loc     0x00006e41      0x13d /opt/cross/lib/gcc/arm-elf/4.2.1/../../../../arm-elf/lib/thumb/interwork/libg.a(lib_a-locale.o)
 .debug_loc     0x00006f7e      0xa76 /opt/cross/lib/gcc/arm-elf/4.2.1/../../../../arm-elf/lib/thumb/interwork/libg.a(lib_a-mallocr.o)
 .debug_loc     0x000079f4      0x157 /opt/cross/lib/gcc/arm-elf/4.2.1/../../../../arm-elf/lib/thumb/interwork/libg.a(lib_a-memchr.o)
 .debug_loc     0x00007b4b      0x172 /opt/cross/lib/gcc/arm-elf/4.2.1/../../../../arm-elf/lib/thumb/interwork/libg.a(lib_a-memmove.o)
 .debug_loc     0x00007cbd     0x13b0 /opt/cross/lib/gcc/arm-elf/4.2.1/../../../../arm-elf/lib/thumb/interwork/libg.a(lib_a-mprec.o)
 .debug_loc     0x0000906d      0xa78 /opt/cross/lib/gcc/arm-elf/4.2.1/../../../../arm-elf/lib/thumb/interwork/libg.a(lib_a-reallocr.o)
 .debug_loc     0x00009ae5       0x5b /opt/cross/lib/gcc/arm-elf/4.2.1/../../../../arm-elf/lib/thumb/interwork/libg.a(lib_a-sbrkr.o)
 .debug_loc     0x00009b40       0x18 /opt/cross/lib/gcc/arm-elf/4.2.1/../../../../arm-elf/lib/thumb/interwork/libg.a(lib_a-s_isinfd.o)
 .debug_loc     0x00009b58       0x2b /opt/cross/lib/gcc/arm-elf/4.2.1/../../../../arm-elf/lib/thumb/interwork/libg.a(lib_a-s_isnand.o)
 .debug_loc     0x00009b83       0xad /opt/cross/lib/gcc/arm-elf/4.2.1/../../../../arm-elf/lib/thumb/interwork/libg.a(lib_a-strcmp.o)
 .debug_loc     0x00009c30      0xc7a /opt/cross/lib/gcc/arm-elf/4.2.1/../../../../arm-elf/lib/thumb/interwork/libg.a(lib_a-syscalls.o)
 .debug_loc     0x0000a8aa      0x10a /opt/cross/lib/gcc/arm-elf/4.2.1/../../../../arm-elf/lib/thumb/interwork/libg.a(lib_a-callocr.o)
 .debug_loc     0x0000a9b4      0x30f /opt/cross/lib/gcc/arm-elf/4.2.1/../../../../arm-elf/lib/thumb/interwork/libg.a(lib_a-findfp.o)
 .debug_loc     0x0000acc3      0x237 /opt/cross/lib/gcc/arm-elf/4.2.1/../../../../arm-elf/lib/thumb/interwork/libg.a(lib_a-fwalk.o)
 .debug_loc     0x0000aefa      0x1f2 /opt/cross/lib/gcc/arm-elf/4.2.1/../../../../arm-elf/lib/thumb/interwork/libg.a(lib_a-reent.o)
 .debug_loc     0x0000b0ec      0x21a /opt/cross/lib/gcc/arm-elf/4.2.1/../../../../arm-elf/lib/thumb/interwork/libg.a(lib_a-stdio.o)
 .debug_loc     0x0000b306       0xb5 /opt/cross/lib/gcc/arm-elf/4.2.1/../../../../arm-elf/lib/thumb/interwork/libg.a(lib_a-writer.o)
 .debug_loc     0x0000b3bb       0x79 /opt/cross/lib/gcc/arm-elf/4.2.1/../../../../arm-elf/lib/thumb/interwork/libg.a(lib_a-closer.o)
 .debug_loc     0x0000b434       0xe2 /opt/cross/lib/gcc/arm-elf/4.2.1/../../../../arm-elf/lib/thumb/interwork/libg.a(lib_a-fclose.o)
 .debug_loc     0x0000b516      0x221 /opt/cross/lib/gcc/arm-elf/4.2.1/../../../../arm-elf/lib/thumb/interwork/libg.a(lib_a-fflush.o)
 .debug_loc     0x0000b737       0x97 /opt/cross/lib/gcc/arm-elf/4.2.1/../../../../arm-elf/lib/thumb/interwork/libg.a(lib_a-lseekr.o)
 .debug_loc     0x0000b7ce       0xb5 /opt/cross/lib/gcc/arm-elf/4.2.1/../../../../arm-elf/lib/thumb/interwork/libg.a(lib_a-readr.o)
 .debug_loc     0x0000b883      0x467 /opt/cross/lib/gcc/arm-elf/4.2.1/thumb/interwork/libgcc.a(_addsub_df.o)
 .debug_loc     0x0000bcea      0x2c0 /opt/cross/lib/gcc/arm-elf/4.2.1/thumb/interwork/libgcc.a(_mul_df.o)
 .debug_loc     0x0000bfaa      0x20b /opt/cross/lib/gcc/arm-elf/4.2.1/thumb/interwork/libgcc.a(_div_df.o)
 .debug_loc     0x0000c1b5       0x6f /opt/cross/lib/gcc/arm-elf/4.2.1/thumb/interwork/libgcc.a(_eq_df.o)
 .debug_loc     0x0000c224       0x6f /opt/cross/lib/gcc/arm-elf/4.2.1/thumb/interwork/libgcc.a(_ne_df.o)
 .debug_loc     0x0000c293       0x6f /opt/cross/lib/gcc/arm-elf/4.2.1/thumb/interwork/libgcc.a(_gt_df.o)
 .debug_loc     0x0000c302       0x6f /opt/cross/lib/gcc/arm-elf/4.2.1/thumb/interwork/libgcc.a(_ge_df.o)
 .debug_loc     0x0000c371       0x6f /opt/cross/lib/gcc/arm-elf/4.2.1/thumb/interwork/libgcc.a(_lt_df.o)
 .debug_loc     0x0000c3e0       0xd8 /opt/cross/lib/gcc/arm-elf/4.2.1/thumb/interwork/libgcc.a(_si_to_df.o)
 .debug_loc     0x0000c4b8       0xc6 /opt/cross/lib/gcc/arm-elf/4.2.1/thumb/interwork/libgcc.a(_df_to_si.o)
 .debug_loc     0x0000c57e       0x9a /opt/cross/lib/gcc/arm-elf/4.2.1/thumb/interwork/libgcc.a(_usi_to_df.o)
 .debug_loc     0x0000c618      0x15b /opt/cross/lib/gcc/arm-elf/4.2.1/thumb/interwork/libgcc.a(_muldi3.o)
 .debug_loc     0x0000c773       0x1e /opt/cross/lib/gcc/arm-elf/4.2.1/thumb/interwork/libgcc.a(_clzsi2.o)
 .debug_loc     0x0000c791      0x209 /opt/cross/lib/gcc/arm-elf/4.2.1/thumb/interwork/libgcc.a(_pack_df.o)
 .debug_loc     0x0000c99a      0x114 /opt/cross/lib/gcc/arm-elf/4.2.1/thumb/interwork/libgcc.a(_unpack_df.o)
 .debug_loc     0x0000caae       0xcb /opt/cross/lib/gcc/arm-elf/4.2.1/thumb/interwork/libgcc.a(_fpcmp_parts_df.o)

.debug_pubnames
                0x00000000     0x17d9
 .debug_pubnames
                0x00000000       0x59 ../Common/drivers/LPC/peripherals/pwm.o
 .debug_pubnames
                0x00000059       0x7d ../Common/drivers/LPC/serial/serial.o
 .debug_pubnames
                0x000000d6       0x4a ../Common/drivers/LPC/serial/serialISR.o
 .debug_pubnames
                0x00000120       0x1f ../Common/drivers/LPC/printf/uart0PutChar2.o
 .debug_pubnames
                0x0000013f       0x50 ../Common/drivers/LPC/printf/printf2.o
 .debug_pubnames
                0x0000018f       0x6c ../Common/drivers/LPC/printf/printfHelpers.o
 .debug_pubnames
                0x000001fb      0x19f ../Common/drivers/LPC/i2c/i2c.o
 .debug_pubnames
                0x0000039a       0xe3 ../Source/portable/GCC/ARM7_LPC23xx/portISR.o
 .debug_pubnames
                0x0000047d       0x7b main.o
 .debug_pubnames
                0x000004f8       0x52 ../Common/Minimal/BlockQ.o
 .debug_pubnames
                0x0000054a       0x53 ../Common/Minimal/blocktim.o
 .debug_pubnames
                0x0000059d       0x52 ../Common/Minimal/integer.o
 .debug_pubnames
                0x000005ef       0x54 ../Common/Minimal/GenQTest.o
 .debug_pubnames
                0x00000643       0x95 ../Common/Minimal/QPeek.o
 .debug_pubnames
                0x000006d8       0x72 ../Common/Minimal/dynamic.o
 .debug_pubnames
                0x0000074a       0x71 ../Source/list.o
 .debug_pubnames
                0x000007bb      0x127 ../Source/queue.o
 .debug_pubnames
                0x000008e2      0x2ba ../Source/tasks.o
 .debug_pubnames
                0x00000b9c       0x5a ../Source/portable/GCC/ARM7_LPC23xx/port.o
 .debug_pubnames
                0x00000bf6       0x31 ../Source/portable/MemMang/heap_2.o
 .debug_pubnames
                0x00000c27       0x1d /opt/cross/lib/gcc/arm-elf/4.2.1/../../../../arm-elf/lib/thumb/interwork/libg.a(lib_a-memcpy.o)
 .debug_pubnames
                0x00000c44       0x1d /opt/cross/lib/gcc/arm-elf/4.2.1/../../../../arm-elf/lib/thumb/interwork/libg.a(lib_a-memset.o)
 .debug_pubnames
                0x00000c61       0x2d /opt/cross/lib/gcc/arm-elf/4.2.1/../../../../arm-elf/lib/thumb/interwork/libg.a(lib_a-sprintf.o)
 .debug_pubnames
                0x00000c8e       0x1d /opt/cross/lib/gcc/arm-elf/4.2.1/../../../../arm-elf/lib/thumb/interwork/libg.a(lib_a-strcat.o)
 .debug_pubnames
                0x00000cab       0x1d /opt/cross/lib/gcc/arm-elf/4.2.1/../../../../arm-elf/lib/thumb/interwork/libg.a(lib_a-strcpy.o)
 .debug_pubnames
                0x00000cc8       0x1d /opt/cross/lib/gcc/arm-elf/4.2.1/../../../../arm-elf/lib/thumb/interwork/libg.a(lib_a-strlen.o)
 .debug_pubnames
                0x00000ce5       0x1e /opt/cross/lib/gcc/arm-elf/4.2.1/../../../../arm-elf/lib/thumb/interwork/libg.a(lib_a-strncpy.o)
 .debug_pubnames
                0x00000d03       0x23 /opt/cross/lib/gcc/arm-elf/4.2.1/../../../../arm-elf/lib/thumb/interwork/libg.a(lib_a-svfprintf.o)
 .debug_pubnames
                0x00000d26       0x1e /opt/cross/lib/gcc/arm-elf/4.2.1/../../../../arm-elf/lib/thumb/interwork/libg.a(lib_a-dtoa.o)
 .debug_pubnames
                0x00000d44       0x31 /opt/cross/lib/gcc/arm-elf/4.2.1/../../../../arm-elf/lib/thumb/interwork/libg.a(lib_a-freer.o)
 .debug_pubnames
                0x00000d75       0x39 /opt/cross/lib/gcc/arm-elf/4.2.1/../../../../arm-elf/lib/thumb/interwork/libg.a(lib_a-impure.o)
 .debug_pubnames
                0x00000dae       0xc3 /opt/cross/lib/gcc/arm-elf/4.2.1/../../../../arm-elf/lib/thumb/interwork/libg.a(lib_a-locale.o)
 .debug_pubnames
                0x00000e71       0xce /opt/cross/lib/gcc/arm-elf/4.2.1/../../../../arm-elf/lib/thumb/interwork/libg.a(lib_a-mallocr.o)
 .debug_pubnames
                0x00000f3f       0x1d /opt/cross/lib/gcc/arm-elf/4.2.1/../../../../arm-elf/lib/thumb/interwork/libg.a(lib_a-memchr.o)
 .debug_pubnames
                0x00000f5c       0x1e /opt/cross/lib/gcc/arm-elf/4.2.1/../../../../arm-elf/lib/thumb/interwork/libg.a(lib_a-memmove.o)
 .debug_pubnames
                0x00000f7a       0x38 /opt/cross/lib/gcc/arm-elf/4.2.1/../../../../arm-elf/lib/thumb/interwork/libg.a(lib_a-mlock.o)
 .debug_pubnames
                0x00000fb2      0x13a /opt/cross/lib/gcc/arm-elf/4.2.1/../../../../arm-elf/lib/thumb/interwork/libg.a(lib_a-mprec.o)
 .debug_pubnames
                0x000010ec       0x21 /opt/cross/lib/gcc/arm-elf/4.2.1/../../../../arm-elf/lib/thumb/interwork/libg.a(lib_a-reallocr.o)
 .debug_pubnames
                0x0000110d       0x1e /opt/cross/lib/gcc/arm-elf/4.2.1/../../../../arm-elf/lib/thumb/interwork/libg.a(lib_a-sbrkr.o)
 .debug_pubnames
                0x0000112b       0x1f /opt/cross/lib/gcc/arm-elf/4.2.1/../../../../arm-elf/lib/thumb/interwork/libg.a(lib_a-s_isinfd.o)
 .debug_pubnames
                0x0000114a       0x1f /opt/cross/lib/gcc/arm-elf/4.2.1/../../../../arm-elf/lib/thumb/interwork/libg.a(lib_a-s_isnand.o)
 .debug_pubnames
                0x00001169       0x1d /opt/cross/lib/gcc/arm-elf/4.2.1/../../../../arm-elf/lib/thumb/interwork/libg.a(lib_a-strcmp.o)
 .debug_pubnames
                0x00001186      0x159 /opt/cross/lib/gcc/arm-elf/4.2.1/../../../../arm-elf/lib/thumb/interwork/libg.a(lib_a-syscalls.o)
 .debug_pubnames
                0x000012df       0x20 /opt/cross/lib/gcc/arm-elf/4.2.1/../../../../arm-elf/lib/thumb/interwork/libg.a(lib_a-callocr.o)
 .debug_pubnames
                0x000012ff       0x1e /opt/cross/lib/gcc/arm-elf/4.2.1/../../../../arm-elf/lib/thumb/interwork/libg.a(lib_a-errno.o)
 .debug_pubnames
                0x0000131d       0xdb /opt/cross/lib/gcc/arm-elf/4.2.1/../../../../arm-elf/lib/thumb/interwork/libg.a(lib_a-findfp.o)
 .debug_pubnames
                0x000013f8       0x2e /opt/cross/lib/gcc/arm-elf/4.2.1/../../../../arm-elf/lib/thumb/interwork/libg.a(lib_a-fwalk.o)
 .debug_pubnames
                0x00001426       0x52 /opt/cross/lib/gcc/arm-elf/4.2.1/../../../../arm-elf/lib/thumb/interwork/libg.a(lib_a-reent.o)
 .debug_pubnames
                0x00001478       0x44 /opt/cross/lib/gcc/arm-elf/4.2.1/../../../../arm-elf/lib/thumb/interwork/libg.a(lib_a-stdio.o)
 .debug_pubnames
                0x000014bc       0x1f /opt/cross/lib/gcc/arm-elf/4.2.1/../../../../arm-elf/lib/thumb/interwork/libg.a(lib_a-writer.o)
 .debug_pubnames
                0x000014db       0x1f /opt/cross/lib/gcc/arm-elf/4.2.1/../../../../arm-elf/lib/thumb/interwork/libg.a(lib_a-closer.o)
 .debug_pubnames
                0x000014fa       0x2b /opt/cross/lib/gcc/arm-elf/4.2.1/../../../../arm-elf/lib/thumb/interwork/libg.a(lib_a-fclose.o)
 .debug_pubnames
                0x00001525       0x2b /opt/cross/lib/gcc/arm-elf/4.2.1/../../../../arm-elf/lib/thumb/interwork/libg.a(lib_a-fflush.o)
 .debug_pubnames
                0x00001550       0x1f /opt/cross/lib/gcc/arm-elf/4.2.1/../../../../arm-elf/lib/thumb/interwork/libg.a(lib_a-lseekr.o)
 .debug_pubnames
                0x0000156f       0x1e /opt/cross/lib/gcc/arm-elf/4.2.1/../../../../arm-elf/lib/thumb/interwork/libg.a(lib_a-readr.o)
 .debug_pubnames
                0x0000158d       0x2c /opt/cross/lib/gcc/arm-elf/4.2.1/thumb/interwork/libgcc.a(_addsub_df.o)
 .debug_pubnames
                0x000015b9       0x1f /opt/cross/lib/gcc/arm-elf/4.2.1/thumb/interwork/libgcc.a(_mul_df.o)
 .debug_pubnames
                0x000015d8       0x1f /opt/cross/lib/gcc/arm-elf/4.2.1/thumb/interwork/libgcc.a(_div_df.o)
 .debug_pubnames
                0x000015f7       0x1e /opt/cross/lib/gcc/arm-elf/4.2.1/thumb/interwork/libgcc.a(_eq_df.o)
 .debug_pubnames
                0x00001615       0x1e /opt/cross/lib/gcc/arm-elf/4.2.1/thumb/interwork/libgcc.a(_ne_df.o)
 .debug_pubnames
                0x00001633       0x1e /opt/cross/lib/gcc/arm-elf/4.2.1/thumb/interwork/libgcc.a(_gt_df.o)
 .debug_pubnames
                0x00001651       0x1e /opt/cross/lib/gcc/arm-elf/4.2.1/thumb/interwork/libgcc.a(_ge_df.o)
 .debug_pubnames
                0x0000166f       0x1e /opt/cross/lib/gcc/arm-elf/4.2.1/thumb/interwork/libgcc.a(_lt_df.o)
 .debug_pubnames
                0x0000168d       0x22 /opt/cross/lib/gcc/arm-elf/4.2.1/thumb/interwork/libgcc.a(_si_to_df.o)
 .debug_pubnames
                0x000016af       0x20 /opt/cross/lib/gcc/arm-elf/4.2.1/thumb/interwork/libgcc.a(_df_to_si.o)
 .debug_pubnames
                0x000016cf       0x22 /opt/cross/lib/gcc/arm-elf/4.2.1/thumb/interwork/libgcc.a(_thenan_df.o)
 .debug_pubnames
                0x000016f1       0x24 /opt/cross/lib/gcc/arm-elf/4.2.1/thumb/interwork/libgcc.a(_usi_to_df.o)
 .debug_pubnames
                0x00001715       0x1f /opt/cross/lib/gcc/arm-elf/4.2.1/thumb/interwork/libgcc.a(_muldi3.o)
 .debug_pubnames
                0x00001734       0x1f /opt/cross/lib/gcc/arm-elf/4.2.1/thumb/interwork/libgcc.a(_clzsi2.o)
 .debug_pubnames
                0x00001753       0x1f /opt/cross/lib/gcc/arm-elf/4.2.1/thumb/interwork/libgcc.a(_pack_df.o)
 .debug_pubnames
                0x00001772       0x21 /opt/cross/lib/gcc/arm-elf/4.2.1/thumb/interwork/libgcc.a(_unpack_df.o)
 .debug_pubnames
                0x00001793       0x26 /opt/cross/lib/gcc/arm-elf/4.2.1/thumb/interwork/libgcc.a(_fpcmp_parts_df.o)
 .debug_pubnames
                0x000017b9       0x20 /opt/cross/lib/gcc/arm-elf/4.2.1/thumb/interwork/libgcc.a(_clz.o)

.debug_aranges  0x00000000      0x988
 .debug_aranges
                0x00000000       0x20 ../Common/drivers/LPC/peripherals/pwm.o
 .debug_aranges
                0x00000020       0x20 ../Common/drivers/LPC/serial/serial.o
 .debug_aranges
                0x00000040       0x20 ../Common/drivers/LPC/serial/serialISR.o
 .debug_aranges
                0x00000060       0x20 ../Common/drivers/LPC/printf/uart0PutChar2.o
 .debug_aranges
                0x00000080       0x20 ../Common/drivers/LPC/printf/printf2.o
 .debug_aranges
                0x000000a0       0x20 ../Common/drivers/LPC/printf/printfHelpers.o
 .debug_aranges
                0x000000c0       0x20 ../Common/drivers/LPC/i2c/i2c.o
 .debug_aranges
                0x000000e0       0x20 ../Source/portable/GCC/ARM7_LPC23xx/portISR.o
 .debug_aranges
                0x00000100       0x20 main.o
 .debug_aranges
                0x00000120       0x20 ../Common/Minimal/BlockQ.o
 .debug_aranges
                0x00000140       0x20 ../Common/Minimal/blocktim.o
 .debug_aranges
                0x00000160       0x20 ../Common/Minimal/integer.o
 .debug_aranges
                0x00000180       0x20 ../Common/Minimal/GenQTest.o
 .debug_aranges
                0x000001a0       0x20 ../Common/Minimal/QPeek.o
 .debug_aranges
                0x000001c0       0x20 ../Common/Minimal/dynamic.o
 .debug_aranges
                0x000001e0       0x20 ../Source/list.o
 .debug_aranges
                0x00000200       0x20 ../Source/queue.o
 .debug_aranges
                0x00000220       0x20 ../Source/tasks.o
 .debug_aranges
                0x00000240       0x20 ../Source/portable/GCC/ARM7_LPC23xx/port.o
 .debug_aranges
                0x00000260       0x20 ../Source/portable/MemMang/heap_2.o
 .debug_aranges
                0x00000280       0x28 /tmp/ccyCmckx.o
 .debug_aranges
                0x000002a8       0x20 /opt/cross/lib/gcc/arm-elf/4.2.1/thumb/interwork/libgcc.a(_udivsi3.o)
 .debug_aranges
                0x000002c8       0x20 /opt/cross/lib/gcc/arm-elf/4.2.1/thumb/interwork/libgcc.a(_divsi3.o)
 .debug_aranges
                0x000002e8       0x20 /opt/cross/lib/gcc/arm-elf/4.2.1/thumb/interwork/libgcc.a(_dvmd_tls.o)
 .debug_aranges
                0x00000308       0x20 /opt/cross/lib/gcc/arm-elf/4.2.1/../../../../arm-elf/lib/thumb/interwork/libg.a(lib_a-memcpy.o)
 .debug_aranges
                0x00000328       0x20 /opt/cross/lib/gcc/arm-elf/4.2.1/../../../../arm-elf/lib/thumb/interwork/libg.a(lib_a-memset.o)
 .debug_aranges
                0x00000348       0x20 /opt/cross/lib/gcc/arm-elf/4.2.1/../../../../arm-elf/lib/thumb/interwork/libg.a(lib_a-sprintf.o)
 .debug_aranges
                0x00000368       0x20 /opt/cross/lib/gcc/arm-elf/4.2.1/../../../../arm-elf/lib/thumb/interwork/libg.a(lib_a-strcat.o)
 .debug_aranges
                0x00000388       0x20 /opt/cross/lib/gcc/arm-elf/4.2.1/../../../../arm-elf/lib/thumb/interwork/libg.a(lib_a-strcpy.o)
 .debug_aranges
                0x000003a8       0x20 /opt/cross/lib/gcc/arm-elf/4.2.1/../../../../arm-elf/lib/thumb/interwork/libg.a(lib_a-strlen.o)
 .debug_aranges
                0x000003c8       0x20 /opt/cross/lib/gcc/arm-elf/4.2.1/../../../../arm-elf/lib/thumb/interwork/libg.a(lib_a-strncpy.o)
 .debug_aranges
                0x000003e8       0x20 /opt/cross/lib/gcc/arm-elf/4.2.1/../../../../arm-elf/lib/thumb/interwork/libg.a(lib_a-svfprintf.o)
 .debug_aranges
                0x00000408       0x20 /opt/cross/lib/gcc/arm-elf/4.2.1/../../../../arm-elf/lib/thumb/interwork/libg.a(lib_a-dtoa.o)
 .debug_aranges
                0x00000428       0x20 /opt/cross/lib/gcc/arm-elf/4.2.1/../../../../arm-elf/lib/thumb/interwork/libg.a(lib_a-freer.o)
 .debug_aranges
                0x00000448       0x20 /opt/cross/lib/gcc/arm-elf/4.2.1/../../../../arm-elf/lib/thumb/interwork/libg.a(lib_a-locale.o)
 .debug_aranges
                0x00000468       0x20 /opt/cross/lib/gcc/arm-elf/4.2.1/../../../../arm-elf/lib/thumb/interwork/libg.a(lib_a-mallocr.o)
 .debug_aranges
                0x00000488       0x20 /opt/cross/lib/gcc/arm-elf/4.2.1/../../../../arm-elf/lib/thumb/interwork/libg.a(lib_a-memchr.o)
 .debug_aranges
                0x000004a8       0x20 /opt/cross/lib/gcc/arm-elf/4.2.1/../../../../arm-elf/lib/thumb/interwork/libg.a(lib_a-memmove.o)
 .debug_aranges
                0x000004c8       0x20 /opt/cross/lib/gcc/arm-elf/4.2.1/../../../../arm-elf/lib/thumb/interwork/libg.a(lib_a-mlock.o)
 .debug_aranges
                0x000004e8       0x20 /opt/cross/lib/gcc/arm-elf/4.2.1/../../../../arm-elf/lib/thumb/interwork/libg.a(lib_a-mprec.o)
 .debug_aranges
                0x00000508       0x20 /opt/cross/lib/gcc/arm-elf/4.2.1/../../../../arm-elf/lib/thumb/interwork/libg.a(lib_a-reallocr.o)
 .debug_aranges
                0x00000528       0x20 /opt/cross/lib/gcc/arm-elf/4.2.1/../../../../arm-elf/lib/thumb/interwork/libg.a(lib_a-sbrkr.o)
 .debug_aranges
                0x00000548       0x20 /opt/cross/lib/gcc/arm-elf/4.2.1/../../../../arm-elf/lib/thumb/interwork/libg.a(lib_a-s_isinfd.o)
 .debug_aranges
                0x00000568       0x20 /opt/cross/lib/gcc/arm-elf/4.2.1/../../../../arm-elf/lib/thumb/interwork/libg.a(lib_a-s_isnand.o)
 .debug_aranges
                0x00000588       0x20 /opt/cross/lib/gcc/arm-elf/4.2.1/../../../../arm-elf/lib/thumb/interwork/libg.a(lib_a-strcmp.o)
 .debug_aranges
                0x000005a8       0x20 /opt/cross/lib/gcc/arm-elf/4.2.1/../../../../arm-elf/lib/thumb/interwork/libg.a(lib_a-syscalls.o)
 .debug_aranges
                0x000005c8       0x20 /opt/cross/lib/gcc/arm-elf/4.2.1/../../../../arm-elf/lib/thumb/interwork/libg.a(lib_a-callocr.o)
 .debug_aranges
                0x000005e8       0x20 /opt/cross/lib/gcc/arm-elf/4.2.1/../../../../arm-elf/lib/thumb/interwork/libg.a(lib_a-errno.o)
 .debug_aranges
                0x00000608       0x20 /opt/cross/lib/gcc/arm-elf/4.2.1/../../../../arm-elf/lib/thumb/interwork/libg.a(lib_a-findfp.o)
 .debug_aranges
                0x00000628       0x20 /opt/cross/lib/gcc/arm-elf/4.2.1/../../../../arm-elf/lib/thumb/interwork/libg.a(lib_a-fwalk.o)
 .debug_aranges
                0x00000648       0x20 /opt/cross/lib/gcc/arm-elf/4.2.1/../../../../arm-elf/lib/thumb/interwork/libg.a(lib_a-reent.o)
 .debug_aranges
                0x00000668       0x20 /opt/cross/lib/gcc/arm-elf/4.2.1/../../../../arm-elf/lib/thumb/interwork/libg.a(lib_a-stdio.o)
 .debug_aranges
                0x00000688       0x20 /opt/cross/lib/gcc/arm-elf/4.2.1/../../../../arm-elf/lib/thumb/interwork/libg.a(lib_a-writer.o)
 .debug_aranges
                0x000006a8       0x20 /opt/cross/lib/gcc/arm-elf/4.2.1/../../../../arm-elf/lib/thumb/interwork/libg.a(lib_a-closer.o)
 .debug_aranges
                0x000006c8       0x20 /opt/cross/lib/gcc/arm-elf/4.2.1/../../../../arm-elf/lib/thumb/interwork/libg.a(lib_a-fclose.o)
 .debug_aranges
                0x000006e8       0x20 /opt/cross/lib/gcc/arm-elf/4.2.1/../../../../arm-elf/lib/thumb/interwork/libg.a(lib_a-fflush.o)
 .debug_aranges
                0x00000708       0x20 /opt/cross/lib/gcc/arm-elf/4.2.1/../../../../arm-elf/lib/thumb/interwork/libg.a(lib_a-lseekr.o)
 .debug_aranges
                0x00000728       0x20 /opt/cross/lib/gcc/arm-elf/4.2.1/../../../../arm-elf/lib/thumb/interwork/libg.a(lib_a-readr.o)
 .debug_aranges
                0x00000748       0x20 /opt/cross/lib/gcc/arm-elf/4.2.1/thumb/interwork/libgcc.a(_umodsi3.o)
 .debug_aranges
                0x00000768       0x20 /opt/cross/lib/gcc/arm-elf/4.2.1/thumb/interwork/libgcc.a(_modsi3.o)
 .debug_aranges
                0x00000788       0x20 /opt/cross/lib/gcc/arm-elf/4.2.1/thumb/interwork/libgcc.a(_addsub_df.o)
 .debug_aranges
                0x000007a8       0x20 /opt/cross/lib/gcc/arm-elf/4.2.1/thumb/interwork/libgcc.a(_mul_df.o)
 .debug_aranges
                0x000007c8       0x20 /opt/cross/lib/gcc/arm-elf/4.2.1/thumb/interwork/libgcc.a(_div_df.o)
 .debug_aranges
                0x000007e8       0x20 /opt/cross/lib/gcc/arm-elf/4.2.1/thumb/interwork/libgcc.a(_eq_df.o)
 .debug_aranges
                0x00000808       0x20 /opt/cross/lib/gcc/arm-elf/4.2.1/thumb/interwork/libgcc.a(_ne_df.o)
 .debug_aranges
                0x00000828       0x20 /opt/cross/lib/gcc/arm-elf/4.2.1/thumb/interwork/libgcc.a(_gt_df.o)
 .debug_aranges
                0x00000848       0x20 /opt/cross/lib/gcc/arm-elf/4.2.1/thumb/interwork/libgcc.a(_ge_df.o)
 .debug_aranges
                0x00000868       0x20 /opt/cross/lib/gcc/arm-elf/4.2.1/thumb/interwork/libgcc.a(_lt_df.o)
 .debug_aranges
                0x00000888       0x20 /opt/cross/lib/gcc/arm-elf/4.2.1/thumb/interwork/libgcc.a(_si_to_df.o)
 .debug_aranges
                0x000008a8       0x20 /opt/cross/lib/gcc/arm-elf/4.2.1/thumb/interwork/libgcc.a(_df_to_si.o)
 .debug_aranges
                0x000008c8       0x20 /opt/cross/lib/gcc/arm-elf/4.2.1/thumb/interwork/libgcc.a(_usi_to_df.o)
 .debug_aranges
                0x000008e8       0x20 /opt/cross/lib/gcc/arm-elf/4.2.1/thumb/interwork/libgcc.a(_muldi3.o)
 .debug_aranges
                0x00000908       0x20 /opt/cross/lib/gcc/arm-elf/4.2.1/thumb/interwork/libgcc.a(_clzsi2.o)
 .debug_aranges
                0x00000928       0x20 /opt/cross/lib/gcc/arm-elf/4.2.1/thumb/interwork/libgcc.a(_pack_df.o)
 .debug_aranges
                0x00000948       0x20 /opt/cross/lib/gcc/arm-elf/4.2.1/thumb/interwork/libgcc.a(_unpack_df.o)
 .debug_aranges
                0x00000968       0x20 /opt/cross/lib/gcc/arm-elf/4.2.1/thumb/interwork/libgcc.a(_fpcmp_parts_df.o)

.debug_str      0x00000000     0x3a40
 .debug_str     0x00000000      0x18a ../Common/drivers/LPC/peripherals/pwm.o
                                0x1cc (size before relaxing)
 .debug_str     0x0000018a      0x141 ../Common/drivers/LPC/serial/serial.o
                                0x231 (size before relaxing)
 .debug_str     0x000002cb       0xc2 ../Common/drivers/LPC/serial/serialISR.o
                                0x1fc (size before relaxing)
 .debug_str     0x0000038d       0x3b ../Common/drivers/LPC/printf/uart0PutChar2.o
                                0x10c (size before relaxing)
 .debug_str     0x000003c8       0xa9 ../Common/drivers/LPC/printf/printf2.o
                                0x18c (size before relaxing)
 .debug_str     0x00000471       0x93 ../Common/drivers/LPC/printf/printfHelpers.o
                                0x164 (size before relaxing)
 .debug_str     0x00000504      0x1ad ../Common/drivers/LPC/i2c/i2c.o
                                0x28f (size before relaxing)
 .debug_str     0x000006b1       0xcd ../Source/portable/GCC/ARM7_LPC23xx/portISR.o
                                0x1bd (size before relaxing)
 .debug_str     0x0000077e       0xfd main.o
                                0x24b (size before relaxing)
 .debug_str     0x0000087b      0x215 ../Common/Minimal/BlockQ.o
                                0x327 (size before relaxing)
 .debug_str     0x00000a90      0x14d ../Common/Minimal/blocktim.o
                                0x253 (size before relaxing)
 .debug_str     0x00000bdd       0x8f ../Common/Minimal/integer.o
                                0x18d (size before relaxing)
 .debug_str     0x00000c6c      0x175 ../Common/Minimal/GenQTest.o
                                0x27e (size before relaxing)
 .debug_str     0x00000de1       0xf5 ../Common/Minimal/QPeek.o
                                0x222 (size before relaxing)
 .debug_str     0x00000ed6      0x1db ../Common/Minimal/dynamic.o
                                0x2eb (size before relaxing)
 .debug_str     0x000010b1      0x128 ../Source/list.o
                                0x213 (size before relaxing)
 .debug_str     0x000011d9      0x2e0 ../Source/queue.o
                                0x48f (size before relaxing)
 .debug_str     0x000014b9      0x6ed ../Source/tasks.o
                                0x8ee (size before relaxing)
 .debug_str     0x00001ba6       0xa2 ../Source/portable/GCC/ARM7_LPC23xx/port.o
                                0x199 (size before relaxing)
 .debug_str     0x00001c48      0x116 ../Source/portable/MemMang/heap_2.o
                                0x1f9 (size before relaxing)
 .debug_str     0x00001d5e       0x7c /opt/cross/lib/gcc/arm-elf/4.2.1/../../../../arm-elf/lib/thumb/interwork/libg.a(lib_a-memcpy.o)
                                0x118 (size before relaxing)
 .debug_str     0x00001dda       0x62 /opt/cross/lib/gcc/arm-elf/4.2.1/../../../../arm-elf/lib/thumb/interwork/libg.a(lib_a-memset.o)
                                0x105 (size before relaxing)
 .debug_str     0x00001e3c      0x3b8 /opt/cross/lib/gcc/arm-elf/4.2.1/../../../../arm-elf/lib/thumb/interwork/libg.a(lib_a-sprintf.o)
                                0x4df (size before relaxing)
 .debug_str     0x000021f4       0x60 /opt/cross/lib/gcc/arm-elf/4.2.1/../../../../arm-elf/lib/thumb/interwork/libg.a(lib_a-strcat.o)
                                 0xf5 (size before relaxing)
 .debug_str     0x00002254       0x55 /opt/cross/lib/gcc/arm-elf/4.2.1/../../../../arm-elf/lib/thumb/interwork/libg.a(lib_a-strcpy.o)
                                0x10c (size before relaxing)
 .debug_str     0x000022a9       0x5b /opt/cross/lib/gcc/arm-elf/4.2.1/../../../../arm-elf/lib/thumb/interwork/libg.a(lib_a-strlen.o)
                                0x104 (size before relaxing)
 .debug_str     0x00002304       0x57 /opt/cross/lib/gcc/arm-elf/4.2.1/../../../../arm-elf/lib/thumb/interwork/libg.a(lib_a-strncpy.o)
                                0x11b (size before relaxing)
 .debug_str     0x0000235b      0x1b0 /opt/cross/lib/gcc/arm-elf/4.2.1/../../../../arm-elf/lib/thumb/interwork/libg.a(lib_a-svfprintf.o)
                                0x675 (size before relaxing)
 .debug_str     0x0000250b      0x115 /opt/cross/lib/gcc/arm-elf/4.2.1/../../../../arm-elf/lib/thumb/interwork/libg.a(lib_a-dtoa.o)
                                0x5a2 (size before relaxing)
 .debug_str     0x00002620      0x16e /opt/cross/lib/gcc/arm-elf/4.2.1/../../../../arm-elf/lib/thumb/interwork/libg.a(lib_a-freer.o)
                                0x5e4 (size before relaxing)
 .debug_str     0x0000278e       0x6c /opt/cross/lib/gcc/arm-elf/4.2.1/../../../../arm-elf/lib/thumb/interwork/libg.a(lib_a-impure.o)
                                0x4bc (size before relaxing)
 .debug_str     0x000027fa      0x1ac /opt/cross/lib/gcc/arm-elf/4.2.1/../../../../arm-elf/lib/thumb/interwork/libg.a(lib_a-locale.o)
                                0x64a (size before relaxing)
 .debug_str     0x000029a6       0xef /opt/cross/lib/gcc/arm-elf/4.2.1/../../../../arm-elf/lib/thumb/interwork/libg.a(lib_a-mallocr.o)
                                0x692 (size before relaxing)
 .debug_str     0x00002a95       0x68 /opt/cross/lib/gcc/arm-elf/4.2.1/../../../../arm-elf/lib/thumb/interwork/libg.a(lib_a-memchr.o)
                                0x10b (size before relaxing)
 .debug_str     0x00002afd       0x60 /opt/cross/lib/gcc/arm-elf/4.2.1/../../../../arm-elf/lib/thumb/interwork/libg.a(lib_a-memmove.o)
                                0x124 (size before relaxing)
 .debug_str     0x00002b5d       0x80 /opt/cross/lib/gcc/arm-elf/4.2.1/../../../../arm-elf/lib/thumb/interwork/libg.a(lib_a-mlock.o)
                                0x4c4 (size before relaxing)
 .debug_str     0x00002bdd      0x10b /opt/cross/lib/gcc/arm-elf/4.2.1/../../../../arm-elf/lib/thumb/interwork/libg.a(lib_a-mprec.o)
                                0x5af (size before relaxing)
 .debug_str     0x00002ce8       0x59 /opt/cross/lib/gcc/arm-elf/4.2.1/../../../../arm-elf/lib/thumb/interwork/libg.a(lib_a-reallocr.o)
                                0x564 (size before relaxing)
 .debug_str     0x00002d41       0x63 /opt/cross/lib/gcc/arm-elf/4.2.1/../../../../arm-elf/lib/thumb/interwork/libg.a(lib_a-sbrkr.o)
                                0x4ad (size before relaxing)
 .debug_str     0x00002da4       0x63 /opt/cross/lib/gcc/arm-elf/4.2.1/../../../../arm-elf/lib/thumb/interwork/libg.a(lib_a-s_isinfd.o)
                                0x111 (size before relaxing)
 .debug_str     0x00002e07       0x59 /opt/cross/lib/gcc/arm-elf/4.2.1/../../../../arm-elf/lib/thumb/interwork/libg.a(lib_a-s_isnand.o)
                                0x111 (size before relaxing)
 .debug_str     0x00002e60       0x55 /opt/cross/lib/gcc/arm-elf/4.2.1/../../../../arm-elf/lib/thumb/interwork/libg.a(lib_a-strcmp.o)
                                 0xea (size before relaxing)
 .debug_str     0x00002eb5      0x326 /opt/cross/lib/gcc/arm-elf/4.2.1/../../../../arm-elf/lib/thumb/interwork/libg.a(lib_a-syscalls.o)
                                0x7dd (size before relaxing)
 .debug_str     0x000031db       0x19 /opt/cross/lib/gcc/arm-elf/4.2.1/../../../../arm-elf/lib/thumb/interwork/libg.a(lib_a-callocr.o)
                                0x4e3 (size before relaxing)
 .debug_str     0x000031f4       0x54 /opt/cross/lib/gcc/arm-elf/4.2.1/../../../../arm-elf/lib/thumb/interwork/libg.a(lib_a-errno.o)
                                0x4a4 (size before relaxing)
 .debug_str     0x00003248      0x115 /opt/cross/lib/gcc/arm-elf/4.2.1/../../../../arm-elf/lib/thumb/interwork/libg.a(lib_a-findfp.o)
                                0x596 (size before relaxing)
 .debug_str     0x0000335d       0x71 /opt/cross/lib/gcc/arm-elf/4.2.1/../../../../arm-elf/lib/thumb/interwork/libg.a(lib_a-fwalk.o)
                                0x4d7 (size before relaxing)
 .debug_str     0x000033ce       0x86 /opt/cross/lib/gcc/arm-elf/4.2.1/../../../../arm-elf/lib/thumb/interwork/libg.a(lib_a-reent.o)
                                0x4e1 (size before relaxing)
 .debug_str     0x00003454       0x75 /opt/cross/lib/gcc/arm-elf/4.2.1/../../../../arm-elf/lib/thumb/interwork/libg.a(lib_a-stdio.o)
                                0x4d3 (size before relaxing)
 .debug_str     0x000034c9       0x5f /opt/cross/lib/gcc/arm-elf/4.2.1/../../../../arm-elf/lib/thumb/interwork/libg.a(lib_a-writer.o)
                                0x4b0 (size before relaxing)
 .debug_str     0x00003528       0x56 /opt/cross/lib/gcc/arm-elf/4.2.1/../../../../arm-elf/lib/thumb/interwork/libg.a(lib_a-closer.o)
                                0x4a0 (size before relaxing)
 .debug_str     0x0000357e       0x63 /opt/cross/lib/gcc/arm-elf/4.2.1/../../../../arm-elf/lib/thumb/interwork/libg.a(lib_a-fclose.o)
                                0x4b8 (size before relaxing)
 .debug_str     0x000035e1       0x65 /opt/cross/lib/gcc/arm-elf/4.2.1/../../../../arm-elf/lib/thumb/interwork/libg.a(lib_a-fflush.o)
                                0x4d4 (size before relaxing)
 .debug_str     0x00003646       0x56 /opt/cross/lib/gcc/arm-elf/4.2.1/../../../../arm-elf/lib/thumb/interwork/libg.a(lib_a-lseekr.o)
                                0x4ae (size before relaxing)
 .debug_str     0x0000369c       0x54 /opt/cross/lib/gcc/arm-elf/4.2.1/../../../../arm-elf/lib/thumb/interwork/libg.a(lib_a-readr.o)
                                0x4ae (size before relaxing)
 .debug_str     0x000036f0      0x182 /opt/cross/lib/gcc/arm-elf/4.2.1/thumb/interwork/libgcc.a(_addsub_df.o)
                                0x235 (size before relaxing)
 .debug_str     0x00003872       0x45 /opt/cross/lib/gcc/arm-elf/4.2.1/thumb/interwork/libgcc.a(_mul_df.o)
                                0x207 (size before relaxing)
 .debug_str     0x000038b7       0x35 /opt/cross/lib/gcc/arm-elf/4.2.1/thumb/interwork/libgcc.a(_div_df.o)
                                0x1f7 (size before relaxing)
 .debug_str     0x000038ec       0x10 /opt/cross/lib/gcc/arm-elf/4.2.1/thumb/interwork/libgcc.a(_eq_df.o)
                                0x1c5 (size before relaxing)
 .debug_str     0x000038fc        0x8 /opt/cross/lib/gcc/arm-elf/4.2.1/thumb/interwork/libgcc.a(_ne_df.o)
                                0x1c5 (size before relaxing)
 .debug_str     0x00003904        0x8 /opt/cross/lib/gcc/arm-elf/4.2.1/thumb/interwork/libgcc.a(_gt_df.o)
                                0x1c5 (size before relaxing)
 .debug_str     0x0000390c        0x8 /opt/cross/lib/gcc/arm-elf/4.2.1/thumb/interwork/libgcc.a(_ge_df.o)
                                0x1c5 (size before relaxing)
 .debug_str     0x00003914        0x8 /opt/cross/lib/gcc/arm-elf/4.2.1/thumb/interwork/libgcc.a(_lt_df.o)
                                0x1c5 (size before relaxing)
 .debug_str     0x0000391c       0x18 /opt/cross/lib/gcc/arm-elf/4.2.1/thumb/interwork/libgcc.a(_si_to_df.o)
                                0x1a4 (size before relaxing)
 .debug_str     0x00003934        0xa /opt/cross/lib/gcc/arm-elf/4.2.1/thumb/interwork/libgcc.a(_df_to_si.o)
                                0x1cd (size before relaxing)
 .debug_str     0x00000000      0x169 /opt/cross/lib/gcc/arm-elf/4.2.1/thumb/interwork/libgcc.a(_thenan_df.o)
 .debug_str     0x0000393e       0x14 /opt/cross/lib/gcc/arm-elf/4.2.1/thumb/interwork/libgcc.a(_usi_to_df.o)
                                0x1a0 (size before relaxing)
 .debug_str     0x00003952       0x9b /opt/cross/lib/gcc/arm-elf/4.2.1/thumb/interwork/libgcc.a(_muldi3.o)
                                0x153 (size before relaxing)
 .debug_str     0x000039ed       0x20 /opt/cross/lib/gcc/arm-elf/4.2.1/thumb/interwork/libgcc.a(_clzsi2.o)
                                0x125 (size before relaxing)
 .debug_str     0x00003a0d       0x10 /opt/cross/lib/gcc/arm-elf/4.2.1/thumb/interwork/libgcc.a(_pack_df.o)
                                0x1cc (size before relaxing)
 .debug_str     0x00003a1d       0x13 /opt/cross/lib/gcc/arm-elf/4.2.1/thumb/interwork/libgcc.a(_unpack_df.o)
                                0x1b6 (size before relaxing)
 .debug_str     0x00003a30       0x10 /opt/cross/lib/gcc/arm-elf/4.2.1/thumb/interwork/libgcc.a(_fpcmp_parts_df.o)
                                0x18c (size before relaxing)
 .debug_str     0x00000000      0x108 /opt/cross/lib/gcc/arm-elf/4.2.1/thumb/interwork/libgcc.a(_clz.o)

.comment        0x00000000      0x522
 .comment       0x00000000       0x12 ../Common/drivers/LPC/peripherals/pwm.o
 .comment       0x00000012       0x12 ../Common/drivers/LPC/serial/serial.o
 .comment       0x00000024       0x12 ../Common/drivers/LPC/serial/serialISR.o
 .comment       0x00000036       0x12 ../Common/drivers/LPC/printf/uart0PutChar2.o
 .comment       0x00000048       0x12 ../Common/drivers/LPC/printf/printf2.o
 .comment       0x0000005a       0x12 ../Common/drivers/LPC/printf/printfHelpers.o
 .comment       0x0000006c       0x12 ../Common/drivers/LPC/i2c/i2c.o
 .comment       0x0000007e       0x12 ../Source/portable/GCC/ARM7_LPC23xx/portISR.o
 .comment       0x00000090       0x12 main.o
 .comment       0x000000a2       0x12 ../Common/Minimal/BlockQ.o
 .comment       0x000000b4       0x12 ../Common/Minimal/blocktim.o
 .comment       0x000000c6       0x12 ../Common/Minimal/integer.o
 .comment       0x000000d8       0x12 ../Common/Minimal/GenQTest.o
 .comment       0x000000ea       0x12 ../Common/Minimal/QPeek.o
 .comment       0x000000fc       0x12 ../Common/Minimal/dynamic.o
 .comment       0x0000010e       0x12 ../Source/list.o
 .comment       0x00000120       0x12 ../Source/queue.o
 .comment       0x00000132       0x12 ../Source/tasks.o
 .comment       0x00000144       0x12 ../Source/portable/GCC/ARM7_LPC23xx/port.o
 .comment       0x00000156       0x12 ../Source/portable/MemMang/heap_2.o
 .comment       0x00000168       0x12 /opt/cross/lib/gcc/arm-elf/4.2.1/../../../../arm-elf/lib/thumb/interwork/libg.a(lib_a-memcpy.o)
 .comment       0x0000017a       0x12 /opt/cross/lib/gcc/arm-elf/4.2.1/../../../../arm-elf/lib/thumb/interwork/libg.a(lib_a-memset.o)
 .comment       0x0000018c       0x12 /opt/cross/lib/gcc/arm-elf/4.2.1/../../../../arm-elf/lib/thumb/interwork/libg.a(lib_a-sprintf.o)
 .comment       0x0000019e       0x12 /opt/cross/lib/gcc/arm-elf/4.2.1/../../../../arm-elf/lib/thumb/interwork/libg.a(lib_a-strcat.o)
 .comment       0x000001b0       0x12 /opt/cross/lib/gcc/arm-elf/4.2.1/../../../../arm-elf/lib/thumb/interwork/libg.a(lib_a-strcpy.o)
 .comment       0x000001c2       0x12 /opt/cross/lib/gcc/arm-elf/4.2.1/../../../../arm-elf/lib/thumb/interwork/libg.a(lib_a-strlen.o)
 .comment       0x000001d4       0x12 /opt/cross/lib/gcc/arm-elf/4.2.1/../../../../arm-elf/lib/thumb/interwork/libg.a(lib_a-strncpy.o)
 .comment       0x000001e6       0x12 /opt/cross/lib/gcc/arm-elf/4.2.1/../../../../arm-elf/lib/thumb/interwork/libg.a(lib_a-svfprintf.o)
 .comment       0x000001f8       0x12 /opt/cross/lib/gcc/arm-elf/4.2.1/../../../../arm-elf/lib/thumb/interwork/libg.a(lib_a-dtoa.o)
 .comment       0x0000020a       0x12 /opt/cross/lib/gcc/arm-elf/4.2.1/../../../../arm-elf/lib/thumb/interwork/libg.a(lib_a-freer.o)
 .comment       0x0000021c       0x12 /opt/cross/lib/gcc/arm-elf/4.2.1/../../../../arm-elf/lib/thumb/interwork/libg.a(lib_a-impure.o)
 .comment       0x0000022e       0x12 /opt/cross/lib/gcc/arm-elf/4.2.1/../../../../arm-elf/lib/thumb/interwork/libg.a(lib_a-locale.o)
 .comment       0x00000240       0x12 /opt/cross/lib/gcc/arm-elf/4.2.1/../../../../arm-elf/lib/thumb/interwork/libg.a(lib_a-mallocr.o)
 .comment       0x00000252       0x12 /opt/cross/lib/gcc/arm-elf/4.2.1/../../../../arm-elf/lib/thumb/interwork/libg.a(lib_a-memchr.o)
 .comment       0x00000264       0x12 /opt/cross/lib/gcc/arm-elf/4.2.1/../../../../arm-elf/lib/thumb/interwork/libg.a(lib_a-memmove.o)
 .comment       0x00000276       0x12 /opt/cross/lib/gcc/arm-elf/4.2.1/../../../../arm-elf/lib/thumb/interwork/libg.a(lib_a-mlock.o)
 .comment       0x00000288       0x12 /opt/cross/lib/gcc/arm-elf/4.2.1/../../../../arm-elf/lib/thumb/interwork/libg.a(lib_a-mprec.o)
 .comment       0x0000029a       0x12 /opt/cross/lib/gcc/arm-elf/4.2.1/../../../../arm-elf/lib/thumb/interwork/libg.a(lib_a-reallocr.o)
 .comment       0x000002ac       0x12 /opt/cross/lib/gcc/arm-elf/4.2.1/../../../../arm-elf/lib/thumb/interwork/libg.a(lib_a-sbrkr.o)
 .comment       0x000002be       0x12 /opt/cross/lib/gcc/arm-elf/4.2.1/../../../../arm-elf/lib/thumb/interwork/libg.a(lib_a-s_isinfd.o)
 .comment       0x000002d0       0x12 /opt/cross/lib/gcc/arm-elf/4.2.1/../../../../arm-elf/lib/thumb/interwork/libg.a(lib_a-s_isnand.o)
 .comment       0x000002e2       0x12 /opt/cross/lib/gcc/arm-elf/4.2.1/../../../../arm-elf/lib/thumb/interwork/libg.a(lib_a-strcmp.o)
 .comment       0x000002f4       0x12 /opt/cross/lib/gcc/arm-elf/4.2.1/../../../../arm-elf/lib/thumb/interwork/libg.a(lib_a-syscalls.o)
 .comment       0x00000306       0x12 /opt/cross/lib/gcc/arm-elf/4.2.1/../../../../arm-elf/lib/thumb/interwork/libg.a(lib_a-callocr.o)
 .comment       0x00000318       0x12 /opt/cross/lib/gcc/arm-elf/4.2.1/../../../../arm-elf/lib/thumb/interwork/libg.a(lib_a-errno.o)
 .comment       0x0000032a       0x12 /opt/cross/lib/gcc/arm-elf/4.2.1/../../../../arm-elf/lib/thumb/interwork/libg.a(lib_a-findfp.o)
 .comment       0x0000033c       0x12 /opt/cross/lib/gcc/arm-elf/4.2.1/../../../../arm-elf/lib/thumb/interwork/libg.a(lib_a-fwalk.o)
 .comment       0x0000034e       0x12 /opt/cross/lib/gcc/arm-elf/4.2.1/../../../../arm-elf/lib/thumb/interwork/libg.a(lib_a-reent.o)
 .comment       0x00000360       0x12 /opt/cross/lib/gcc/arm-elf/4.2.1/../../../../arm-elf/lib/thumb/interwork/libg.a(lib_a-stdio.o)
 .comment       0x00000372       0x12 /opt/cross/lib/gcc/arm-elf/4.2.1/../../../../arm-elf/lib/thumb/interwork/libg.a(lib_a-writer.o)
 .comment       0x00000384       0x12 /opt/cross/lib/gcc/arm-elf/4.2.1/../../../../arm-elf/lib/thumb/interwork/libg.a(lib_a-closer.o)
 .comment       0x00000396       0x12 /opt/cross/lib/gcc/arm-elf/4.2.1/../../../../arm-elf/lib/thumb/interwork/libg.a(lib_a-fclose.o)
 .comment       0x000003a8       0x12 /opt/cross/lib/gcc/arm-elf/4.2.1/../../../../arm-elf/lib/thumb/interwork/libg.a(lib_a-fflush.o)
 .comment       0x000003ba       0x12 /opt/cross/lib/gcc/arm-elf/4.2.1/../../../../arm-elf/lib/thumb/interwork/libg.a(lib_a-lseekr.o)
 .comment       0x000003cc       0x12 /opt/cross/lib/gcc/arm-elf/4.2.1/../../../../arm-elf/lib/thumb/interwork/libg.a(lib_a-readr.o)
 .comment       0x000003de       0x12 /opt/cross/lib/gcc/arm-elf/4.2.1/thumb/interwork/libgcc.a(_addsub_df.o)
 .comment       0x000003f0       0x12 /opt/cross/lib/gcc/arm-elf/4.2.1/thumb/interwork/libgcc.a(_mul_df.o)
 .comment       0x00000402       0x12 /opt/cross/lib/gcc/arm-elf/4.2.1/thumb/interwork/libgcc.a(_div_df.o)
 .comment       0x00000414       0x12 /opt/cross/lib/gcc/arm-elf/4.2.1/thumb/interwork/libgcc.a(_eq_df.o)
 .comment       0x00000426       0x12 /opt/cross/lib/gcc/arm-elf/4.2.1/thumb/interwork/libgcc.a(_ne_df.o)
 .comment       0x00000438       0x12 /opt/cross/lib/gcc/arm-elf/4.2.1/thumb/interwork/libgcc.a(_gt_df.o)
 .comment       0x0000044a       0x12 /opt/cross/lib/gcc/arm-elf/4.2.1/thumb/interwork/libgcc.a(_ge_df.o)
 .comment       0x0000045c       0x12 /opt/cross/lib/gcc/arm-elf/4.2.1/thumb/interwork/libgcc.a(_lt_df.o)
 .comment       0x0000046e       0x12 /opt/cross/lib/gcc/arm-elf/4.2.1/thumb/interwork/libgcc.a(_si_to_df.o)
 .comment       0x00000480       0x12 /opt/cross/lib/gcc/arm-elf/4.2.1/thumb/interwork/libgcc.a(_df_to_si.o)
 .comment       0x00000492       0x12 /opt/cross/lib/gcc/arm-elf/4.2.1/thumb/interwork/libgcc.a(_thenan_df.o)
 .comment       0x000004a4       0x12 /opt/cross/lib/gcc/arm-elf/4.2.1/thumb/interwork/libgcc.a(_usi_to_df.o)
 .comment       0x000004b6       0x12 /opt/cross/lib/gcc/arm-elf/4.2.1/thumb/interwork/libgcc.a(_muldi3.o)
 .comment       0x000004c8       0x12 /opt/cross/lib/gcc/arm-elf/4.2.1/thumb/interwork/libgcc.a(_clzsi2.o)
 .comment       0x000004da       0x12 /opt/cross/lib/gcc/arm-elf/4.2.1/thumb/interwork/libgcc.a(_pack_df.o)
 .comment       0x000004ec       0x12 /opt/cross/lib/gcc/arm-elf/4.2.1/thumb/interwork/libgcc.a(_unpack_df.o)
 .comment       0x000004fe       0x12 /opt/cross/lib/gcc/arm-elf/4.2.1/thumb/interwork/libgcc.a(_fpcmp_parts_df.o)
 .comment       0x00000510       0x12 /opt/cross/lib/gcc/arm-elf/4.2.1/thumb/interwork/libgcc.a(_clz.o)

.ARM.attributes
                0x00000000       0x10
 .ARM.attributes
                0x00000000       0x10 ../Common/drivers/LPC/peripherals/pwm.o
 .ARM.attributes
                0x00000010       0x10 ../Common/drivers/LPC/serial/serial.o
 .ARM.attributes
                0x00000020       0x10 ../Common/drivers/LPC/serial/serialISR.o
 .ARM.attributes
                0x00000030       0x10 ../Common/drivers/LPC/printf/uart0PutChar2.o
 .ARM.attributes
                0x00000040       0x10 ../Common/drivers/LPC/printf/printf2.o
 .ARM.attributes
                0x00000050       0x10 ../Common/drivers/LPC/printf/printfHelpers.o
 .ARM.attributes
                0x00000060       0x10 ../Common/drivers/LPC/i2c/i2c.o
 .ARM.attributes
                0x00000070       0x10 ../Source/portable/GCC/ARM7_LPC23xx/portISR.o
 .ARM.attributes
                0x00000080       0x10 main.o
 .ARM.attributes
                0x00000090       0x10 ../Common/Minimal/BlockQ.o
 .ARM.attributes
                0x000000a0       0x10 ../Common/Minimal/blocktim.o
 .ARM.attributes
                0x000000b0       0x10 ../Common/Minimal/integer.o
 .ARM.attributes
                0x000000c0       0x10 ../Common/Minimal/GenQTest.o
 .ARM.attributes
                0x000000d0       0x10 ../Common/Minimal/QPeek.o
 .ARM.attributes
                0x000000e0       0x10 ../Common/Minimal/dynamic.o
 .ARM.attributes
                0x000000f0       0x10 ../Source/list.o
 .ARM.attributes
                0x00000100       0x10 ../Source/queue.o
 .ARM.attributes
                0x00000110       0x10 ../Source/tasks.o
 .ARM.attributes
                0x00000120       0x10 ../Source/portable/GCC/ARM7_LPC23xx/port.o
 .ARM.attributes
                0x00000130       0x10 ../Source/portable/MemMang/heap_2.o
 .ARM.attributes
                0x00000140       0x10 /tmp/ccyCmckx.o
 .ARM.attributes
                0x00000150       0x10 /opt/cross/lib/gcc/arm-elf/4.2.1/thumb/interwork/libgcc.a(_udivsi3.o)
 .ARM.attributes
                0x00000160       0x10 /opt/cross/lib/gcc/arm-elf/4.2.1/thumb/interwork/libgcc.a(_divsi3.o)
 .ARM.attributes
                0x00000170       0x10 /opt/cross/lib/gcc/arm-elf/4.2.1/thumb/interwork/libgcc.a(_dvmd_tls.o)
 .ARM.attributes
                0x00000180       0x10 /opt/cross/lib/gcc/arm-elf/4.2.1/../../../../arm-elf/lib/thumb/interwork/libg.a(lib_a-memcpy.o)
 .ARM.attributes
                0x00000190       0x10 /opt/cross/lib/gcc/arm-elf/4.2.1/../../../../arm-elf/lib/thumb/interwork/libg.a(lib_a-memset.o)
 .ARM.attributes
                0x000001a0       0x10 /opt/cross/lib/gcc/arm-elf/4.2.1/../../../../arm-elf/lib/thumb/interwork/libg.a(lib_a-sprintf.o)
 .ARM.attributes
                0x000001b0       0x10 /opt/cross/lib/gcc/arm-elf/4.2.1/../../../../arm-elf/lib/thumb/interwork/libg.a(lib_a-strcat.o)
 .ARM.attributes
                0x000001c0       0x10 /opt/cross/lib/gcc/arm-elf/4.2.1/../../../../arm-elf/lib/thumb/interwork/libg.a(lib_a-strcpy.o)
 .ARM.attributes
                0x000001d0       0x10 /opt/cross/lib/gcc/arm-elf/4.2.1/../../../../arm-elf/lib/thumb/interwork/libg.a(lib_a-strlen.o)
 .ARM.attributes
                0x000001e0       0x10 /opt/cross/lib/gcc/arm-elf/4.2.1/../../../../arm-elf/lib/thumb/interwork/libg.a(lib_a-strncpy.o)
 .ARM.attributes
                0x000001f0       0x10 /opt/cross/lib/gcc/arm-elf/4.2.1/../../../../arm-elf/lib/thumb/interwork/libg.a(lib_a-svfprintf.o)
 .ARM.attributes
                0x00000200       0x10 /opt/cross/lib/gcc/arm-elf/4.2.1/../../../../arm-elf/lib/thumb/interwork/libg.a(lib_a-dtoa.o)
 .ARM.attributes
                0x00000210       0x10 /opt/cross/lib/gcc/arm-elf/4.2.1/../../../../arm-elf/lib/thumb/interwork/libg.a(lib_a-freer.o)
 .ARM.attributes
                0x00000220       0x10 /opt/cross/lib/gcc/arm-elf/4.2.1/../../../../arm-elf/lib/thumb/interwork/libg.a(lib_a-impure.o)
 .ARM.attributes
                0x00000230       0x10 /opt/cross/lib/gcc/arm-elf/4.2.1/../../../../arm-elf/lib/thumb/interwork/libg.a(lib_a-locale.o)
 .ARM.attributes
                0x00000240       0x10 /opt/cross/lib/gcc/arm-elf/4.2.1/../../../../arm-elf/lib/thumb/interwork/libg.a(lib_a-mallocr.o)
 .ARM.attributes
                0x00000250       0x10 /opt/cross/lib/gcc/arm-elf/4.2.1/../../../../arm-elf/lib/thumb/interwork/libg.a(lib_a-memchr.o)
 .ARM.attributes
                0x00000260       0x10 /opt/cross/lib/gcc/arm-elf/4.2.1/../../../../arm-elf/lib/thumb/interwork/libg.a(lib_a-memmove.o)
 .ARM.attributes
                0x00000270       0x10 /opt/cross/lib/gcc/arm-elf/4.2.1/../../../../arm-elf/lib/thumb/interwork/libg.a(lib_a-mlock.o)
 .ARM.attributes
                0x00000280       0x10 /opt/cross/lib/gcc/arm-elf/4.2.1/../../../../arm-elf/lib/thumb/interwork/libg.a(lib_a-mprec.o)
 .ARM.attributes
                0x00000290       0x10 /opt/cross/lib/gcc/arm-elf/4.2.1/../../../../arm-elf/lib/thumb/interwork/libg.a(lib_a-reallocr.o)
 .ARM.attributes
                0x000002a0       0x10 /opt/cross/lib/gcc/arm-elf/4.2.1/../../../../arm-elf/lib/thumb/interwork/libg.a(lib_a-sbrkr.o)
 .ARM.attributes
                0x000002b0       0x10 /opt/cross/lib/gcc/arm-elf/4.2.1/../../../../arm-elf/lib/thumb/interwork/libg.a(lib_a-s_isinfd.o)
 .ARM.attributes
                0x000002c0       0x10 /opt/cross/lib/gcc/arm-elf/4.2.1/../../../../arm-elf/lib/thumb/interwork/libg.a(lib_a-s_isnand.o)
 .ARM.attributes
                0x000002d0       0x10 /opt/cross/lib/gcc/arm-elf/4.2.1/../../../../arm-elf/lib/thumb/interwork/libg.a(lib_a-strcmp.o)
 .ARM.attributes
                0x000002e0       0x10 /opt/cross/lib/gcc/arm-elf/4.2.1/../../../../arm-elf/lib/thumb/interwork/libg.a(lib_a-syscalls.o)
 .ARM.attributes
                0x000002f0       0x10 /opt/cross/lib/gcc/arm-elf/4.2.1/../../../../arm-elf/lib/thumb/interwork/libg.a(lib_a-callocr.o)
 .ARM.attributes
                0x00000300       0x10 /opt/cross/lib/gcc/arm-elf/4.2.1/../../../../arm-elf/lib/thumb/interwork/libg.a(lib_a-errno.o)
 .ARM.attributes
                0x00000310       0x10 /opt/cross/lib/gcc/arm-elf/4.2.1/../../../../arm-elf/lib/thumb/interwork/libg.a(lib_a-findfp.o)
 .ARM.attributes
                0x00000320       0x10 /opt/cross/lib/gcc/arm-elf/4.2.1/../../../../arm-elf/lib/thumb/interwork/libg.a(lib_a-fwalk.o)
 .ARM.attributes
                0x00000330       0x10 /opt/cross/lib/gcc/arm-elf/4.2.1/../../../../arm-elf/lib/thumb/interwork/libg.a(lib_a-reent.o)
 .ARM.attributes
                0x00000340       0x10 /opt/cross/lib/gcc/arm-elf/4.2.1/../../../../arm-elf/lib/thumb/interwork/libg.a(lib_a-stdio.o)
 .ARM.attributes
                0x00000350       0x10 /opt/cross/lib/gcc/arm-elf/4.2.1/../../../../arm-elf/lib/thumb/interwork/libg.a(lib_a-writer.o)
 .ARM.attributes
                0x00000360       0x10 /opt/cross/lib/gcc/arm-elf/4.2.1/../../../../arm-elf/lib/thumb/interwork/libg.a(lib_a-closer.o)
 .ARM.attributes
                0x00000370       0x10 /opt/cross/lib/gcc/arm-elf/4.2.1/../../../../arm-elf/lib/thumb/interwork/libg.a(lib_a-fclose.o)
 .ARM.attributes
                0x00000380       0x10 /opt/cross/lib/gcc/arm-elf/4.2.1/../../../../arm-elf/lib/thumb/interwork/libg.a(lib_a-fflush.o)
 .ARM.attributes
                0x00000390       0x10 /opt/cross/lib/gcc/arm-elf/4.2.1/../../../../arm-elf/lib/thumb/interwork/libg.a(lib_a-lseekr.o)
 .ARM.attributes
                0x000003a0       0x10 /opt/cross/lib/gcc/arm-elf/4.2.1/../../../../arm-elf/lib/thumb/interwork/libg.a(lib_a-readr.o)
 .ARM.attributes
                0x000003b0       0x10 /opt/cross/lib/gcc/arm-elf/4.2.1/thumb/interwork/libgcc.a(_umodsi3.o)
 .ARM.attributes
                0x000003c0       0x10 /opt/cross/lib/gcc/arm-elf/4.2.1/thumb/interwork/libgcc.a(_modsi3.o)
 .ARM.attributes
                0x000003d0       0x10 /opt/cross/lib/gcc/arm-elf/4.2.1/thumb/interwork/libgcc.a(_addsub_df.o)
 .ARM.attributes
                0x000003e0       0x10 /opt/cross/lib/gcc/arm-elf/4.2.1/thumb/interwork/libgcc.a(_mul_df.o)
 .ARM.attributes
                0x000003f0       0x10 /opt/cross/lib/gcc/arm-elf/4.2.1/thumb/interwork/libgcc.a(_div_df.o)
 .ARM.attributes
                0x00000400       0x10 /opt/cross/lib/gcc/arm-elf/4.2.1/thumb/interwork/libgcc.a(_eq_df.o)
 .ARM.attributes
                0x00000410       0x10 /opt/cross/lib/gcc/arm-elf/4.2.1/thumb/interwork/libgcc.a(_ne_df.o)
 .ARM.attributes
                0x00000420       0x10 /opt/cross/lib/gcc/arm-elf/4.2.1/thumb/interwork/libgcc.a(_gt_df.o)
 .ARM.attributes
                0x00000430       0x10 /opt/cross/lib/gcc/arm-elf/4.2.1/thumb/interwork/libgcc.a(_ge_df.o)
 .ARM.attributes
                0x00000440       0x10 /opt/cross/lib/gcc/arm-elf/4.2.1/thumb/interwork/libgcc.a(_lt_df.o)
 .ARM.attributes
                0x00000450       0x10 /opt/cross/lib/gcc/arm-elf/4.2.1/thumb/interwork/libgcc.a(_si_to_df.o)
 .ARM.attributes
                0x00000460       0x10 /opt/cross/lib/gcc/arm-elf/4.2.1/thumb/interwork/libgcc.a(_df_to_si.o)
 .ARM.attributes
                0x00000470       0x10 /opt/cross/lib/gcc/arm-elf/4.2.1/thumb/interwork/libgcc.a(_thenan_df.o)
 .ARM.attributes
                0x00000480       0x10 /opt/cross/lib/gcc/arm-elf/4.2.1/thumb/interwork/libgcc.a(_usi_to_df.o)
 .ARM.attributes
                0x00000490       0x10 /opt/cross/lib/gcc/arm-elf/4.2.1/thumb/interwork/libgcc.a(_muldi3.o)
 .ARM.attributes
                0x000004a0       0x10 /opt/cross/lib/gcc/arm-elf/4.2.1/thumb/interwork/libgcc.a(_clzsi2.o)
 .ARM.attributes
                0x000004b0       0x10 /opt/cross/lib/gcc/arm-elf/4.2.1/thumb/interwork/libgcc.a(_pack_df.o)
 .ARM.attributes
                0x000004c0       0x10 /opt/cross/lib/gcc/arm-elf/4.2.1/thumb/interwork/libgcc.a(_unpack_df.o)
 .ARM.attributes
                0x000004d0       0x10 /opt/cross/lib/gcc/arm-elf/4.2.1/thumb/interwork/libgcc.a(_fpcmp_parts_df.o)
 .ARM.attributes
                0x000004e0       0x10 /opt/cross/lib/gcc/arm-elf/4.2.1/thumb/interwork/libgcc.a(_clz.o)

.debug_ranges   0x00000000      0x6d8
 .debug_ranges  0x00000000       0x18 ../Common/drivers/LPC/printf/printf2.o
 .debug_ranges  0x00000018       0x18 ../Source/tasks.o
 .debug_ranges  0x00000030       0x20 /tmp/ccyCmckx.o
 .debug_ranges  0x00000050      0x188 /opt/cross/lib/gcc/arm-elf/4.2.1/../../../../arm-elf/lib/thumb/interwork/libg.a(lib_a-svfprintf.o)
 .debug_ranges  0x000001d8       0x80 /opt/cross/lib/gcc/arm-elf/4.2.1/../../../../arm-elf/lib/thumb/interwork/libg.a(lib_a-mallocr.o)
 .debug_ranges  0x00000258       0xf8 /opt/cross/lib/gcc/arm-elf/4.2.1/../../../../arm-elf/lib/thumb/interwork/libg.a(lib_a-reallocr.o)
 .debug_ranges  0x00000350      0x138 /opt/cross/lib/gcc/arm-elf/4.2.1/../../../../arm-elf/lib/thumb/interwork/libg.a(lib_a-syscalls.o)
 .debug_ranges  0x00000488       0x30 /opt/cross/lib/gcc/arm-elf/4.2.1/../../../../arm-elf/lib/thumb/interwork/libg.a(lib_a-callocr.o)
 .debug_ranges  0x000004b8       0x70 /opt/cross/lib/gcc/arm-elf/4.2.1/../../../../arm-elf/lib/thumb/interwork/libg.a(lib_a-fwalk.o)
 .debug_ranges  0x00000528       0x28 /opt/cross/lib/gcc/arm-elf/4.2.1/../../../../arm-elf/lib/thumb/interwork/libg.a(lib_a-fflush.o)
 .debug_ranges  0x00000550       0x30 /opt/cross/lib/gcc/arm-elf/4.2.1/thumb/interwork/libgcc.a(_addsub_df.o)
 .debug_ranges  0x00000580       0x68 /opt/cross/lib/gcc/arm-elf/4.2.1/thumb/interwork/libgcc.a(_mul_df.o)
 .debug_ranges  0x000005e8       0x50 /opt/cross/lib/gcc/arm-elf/4.2.1/thumb/interwork/libgcc.a(_div_df.o)
 .debug_ranges  0x00000638       0x18 /opt/cross/lib/gcc/arm-elf/4.2.1/thumb/interwork/libgcc.a(_usi_to_df.o)
 .debug_ranges  0x00000650       0x30 /opt/cross/lib/gcc/arm-elf/4.2.1/thumb/interwork/libgcc.a(_muldi3.o)
 .debug_ranges  0x00000680       0x20 /opt/cross/lib/gcc/arm-elf/4.2.1/thumb/interwork/libgcc.a(_clzsi2.o)
 .debug_ranges  0x000006a0       0x38 /opt/cross/lib/gcc/arm-elf/4.2.1/thumb/interwork/libgcc.a(_pack_df.o)
